ARM GAS  /tmp/ccrXzzSE.s 			page 1


   1              		.cpu cortex-m4
   2              		.arch armv7e-m
   3              		.fpu softvfp
   4              		.eabi_attribute 20, 1
   5              		.eabi_attribute 21, 1
   6              		.eabi_attribute 23, 3
   7              		.eabi_attribute 24, 1
   8              		.eabi_attribute 25, 1
   9              		.eabi_attribute 26, 1
  10              		.eabi_attribute 30, 1
  11              		.eabi_attribute 34, 1
  12              		.eabi_attribute 18, 4
  13              		.file	"gd32f30x_adc.c"
  14              		.text
  15              	.Ltext0:
  16              		.cfi_sections	.debug_frame
  17              		.section	.text.adc_deinit,"ax",%progbits
  18              		.align	1
  19              		.global	adc_deinit
  20              		.syntax unified
  21              		.thumb
  22              		.thumb_func
  24              	adc_deinit:
  25              	.LVL0:
  26              	.LFB116:
  27              		.file 1 "Drivers/GD32F30x_standard_peripheral/Source/gd32f30x_adc.c"
   1:Drivers/GD32F30x_standard_peripheral/Source/gd32f30x_adc.c **** /*!
   2:Drivers/GD32F30x_standard_peripheral/Source/gd32f30x_adc.c ****     \file    gd32f30x_adc.c
   3:Drivers/GD32F30x_standard_peripheral/Source/gd32f30x_adc.c ****     \brief   ADC driver
   4:Drivers/GD32F30x_standard_peripheral/Source/gd32f30x_adc.c **** 
   5:Drivers/GD32F30x_standard_peripheral/Source/gd32f30x_adc.c ****     \version 2017-02-10, V1.0.0, firmware for GD32F30x
   6:Drivers/GD32F30x_standard_peripheral/Source/gd32f30x_adc.c ****     \version 2018-10-10, V1.1.0, firmware for GD32F30x
   7:Drivers/GD32F30x_standard_peripheral/Source/gd32f30x_adc.c ****     \version 2018-12-25, V2.0.0, firmware for GD32F30x
   8:Drivers/GD32F30x_standard_peripheral/Source/gd32f30x_adc.c ****     \version 2020-09-30, V2.1.0, firmware for GD32F30x
   9:Drivers/GD32F30x_standard_peripheral/Source/gd32f30x_adc.c **** */
  10:Drivers/GD32F30x_standard_peripheral/Source/gd32f30x_adc.c **** 
  11:Drivers/GD32F30x_standard_peripheral/Source/gd32f30x_adc.c **** /*
  12:Drivers/GD32F30x_standard_peripheral/Source/gd32f30x_adc.c ****     Copyright (c) 2020, GigaDevice Semiconductor Inc.
  13:Drivers/GD32F30x_standard_peripheral/Source/gd32f30x_adc.c **** 
  14:Drivers/GD32F30x_standard_peripheral/Source/gd32f30x_adc.c ****     Redistribution and use in source and binary forms, with or without modification, 
  15:Drivers/GD32F30x_standard_peripheral/Source/gd32f30x_adc.c **** are permitted provided that the following conditions are met:
  16:Drivers/GD32F30x_standard_peripheral/Source/gd32f30x_adc.c **** 
  17:Drivers/GD32F30x_standard_peripheral/Source/gd32f30x_adc.c ****     1. Redistributions of source code must retain the above copyright notice, this 
  18:Drivers/GD32F30x_standard_peripheral/Source/gd32f30x_adc.c ****        list of conditions and the following disclaimer.
  19:Drivers/GD32F30x_standard_peripheral/Source/gd32f30x_adc.c ****     2. Redistributions in binary form must reproduce the above copyright notice, 
  20:Drivers/GD32F30x_standard_peripheral/Source/gd32f30x_adc.c ****        this list of conditions and the following disclaimer in the documentation 
  21:Drivers/GD32F30x_standard_peripheral/Source/gd32f30x_adc.c ****        and/or other materials provided with the distribution.
  22:Drivers/GD32F30x_standard_peripheral/Source/gd32f30x_adc.c ****     3. Neither the name of the copyright holder nor the names of its contributors 
  23:Drivers/GD32F30x_standard_peripheral/Source/gd32f30x_adc.c ****        may be used to endorse or promote products derived from this software without 
  24:Drivers/GD32F30x_standard_peripheral/Source/gd32f30x_adc.c ****        specific prior written permission.
  25:Drivers/GD32F30x_standard_peripheral/Source/gd32f30x_adc.c **** 
  26:Drivers/GD32F30x_standard_peripheral/Source/gd32f30x_adc.c ****     THIS SOFTWARE IS PROVIDED BY THE COPYRIGHT HOLDERS AND CONTRIBUTORS "AS IS" 
  27:Drivers/GD32F30x_standard_peripheral/Source/gd32f30x_adc.c **** AND ANY EXPRESS OR IMPLIED WARRANTIES, INCLUDING, BUT NOT LIMITED TO, THE IMPLIED 
  28:Drivers/GD32F30x_standard_peripheral/Source/gd32f30x_adc.c **** WARRANTIES OF MERCHANTABILITY AND FITNESS FOR A PARTICULAR PURPOSE ARE DISCLAIMED. 
  29:Drivers/GD32F30x_standard_peripheral/Source/gd32f30x_adc.c **** IN NO EVENT SHALL THE COPYRIGHT HOLDER OR CONTRIBUTORS BE LIABLE FOR ANY DIRECT, 
  30:Drivers/GD32F30x_standard_peripheral/Source/gd32f30x_adc.c **** INDIRECT, INCIDENTAL, SPECIAL, EXEMPLARY, OR CONSEQUENTIAL DAMAGES (INCLUDING, BUT 
  31:Drivers/GD32F30x_standard_peripheral/Source/gd32f30x_adc.c **** NOT LIMITED TO, PROCUREMENT OF SUBSTITUTE GOODS OR SERVICES; LOSS OF USE, DATA, OR 
ARM GAS  /tmp/ccrXzzSE.s 			page 2


  32:Drivers/GD32F30x_standard_peripheral/Source/gd32f30x_adc.c **** PROFITS; OR BUSINESS INTERRUPTION) HOWEVER CAUSED AND ON ANY THEORY OF LIABILITY, 
  33:Drivers/GD32F30x_standard_peripheral/Source/gd32f30x_adc.c **** WHETHER IN CONTRACT, STRICT LIABILITY, OR TORT (INCLUDING NEGLIGENCE OR OTHERWISE) 
  34:Drivers/GD32F30x_standard_peripheral/Source/gd32f30x_adc.c **** ARISING IN ANY WAY OUT OF THE USE OF THIS SOFTWARE, EVEN IF ADVISED OF THE POSSIBILITY 
  35:Drivers/GD32F30x_standard_peripheral/Source/gd32f30x_adc.c **** OF SUCH DAMAGE.
  36:Drivers/GD32F30x_standard_peripheral/Source/gd32f30x_adc.c **** */
  37:Drivers/GD32F30x_standard_peripheral/Source/gd32f30x_adc.c **** 
  38:Drivers/GD32F30x_standard_peripheral/Source/gd32f30x_adc.c **** #include "gd32f30x_adc.h"
  39:Drivers/GD32F30x_standard_peripheral/Source/gd32f30x_adc.c **** 
  40:Drivers/GD32F30x_standard_peripheral/Source/gd32f30x_adc.c **** /*!
  41:Drivers/GD32F30x_standard_peripheral/Source/gd32f30x_adc.c ****     \brief      reset ADC 
  42:Drivers/GD32F30x_standard_peripheral/Source/gd32f30x_adc.c ****     \param[in]  adc_periph: ADCx,x=0,1,2
  43:Drivers/GD32F30x_standard_peripheral/Source/gd32f30x_adc.c ****                 only one among these parameters can be selected
  44:Drivers/GD32F30x_standard_peripheral/Source/gd32f30x_adc.c ****     \param[out] none
  45:Drivers/GD32F30x_standard_peripheral/Source/gd32f30x_adc.c ****     \retval     none
  46:Drivers/GD32F30x_standard_peripheral/Source/gd32f30x_adc.c **** */
  47:Drivers/GD32F30x_standard_peripheral/Source/gd32f30x_adc.c **** void adc_deinit(uint32_t adc_periph)
  48:Drivers/GD32F30x_standard_peripheral/Source/gd32f30x_adc.c **** {
  28              		.loc 1 48 1 view -0
  29              		.cfi_startproc
  30              		@ args = 0, pretend = 0, frame = 0
  31              		@ frame_needed = 0, uses_anonymous_args = 0
  32              		.loc 1 48 1 is_stmt 0 view .LVU1
  33 0000 08B5     		push	{r3, lr}
  34              	.LCFI0:
  35              		.cfi_def_cfa_offset 8
  36              		.cfi_offset 3, -8
  37              		.cfi_offset 14, -4
  49:Drivers/GD32F30x_standard_peripheral/Source/gd32f30x_adc.c ****     switch(adc_periph){
  38              		.loc 1 49 5 is_stmt 1 view .LVU2
  39 0002 134B     		ldr	r3, .L7
  40 0004 9842     		cmp	r0, r3
  41 0006 11D0     		beq	.L2
  42 0008 03F5A053 		add	r3, r3, #5120
  43 000c 9842     		cmp	r0, r3
  44 000e 16D0     		beq	.L3
  45 0010 A3F5C053 		sub	r3, r3, #6144
  46 0014 9842     		cmp	r0, r3
  47 0016 00D0     		beq	.L6
  48              	.LVL1:
  49              	.L1:
  50:Drivers/GD32F30x_standard_peripheral/Source/gd32f30x_adc.c ****     case ADC0:
  51:Drivers/GD32F30x_standard_peripheral/Source/gd32f30x_adc.c ****         rcu_periph_reset_enable(RCU_ADC0RST);
  52:Drivers/GD32F30x_standard_peripheral/Source/gd32f30x_adc.c ****         rcu_periph_reset_disable(RCU_ADC0RST);
  53:Drivers/GD32F30x_standard_peripheral/Source/gd32f30x_adc.c ****         break;
  54:Drivers/GD32F30x_standard_peripheral/Source/gd32f30x_adc.c ****     case ADC1:
  55:Drivers/GD32F30x_standard_peripheral/Source/gd32f30x_adc.c ****         rcu_periph_reset_enable(RCU_ADC1RST);
  56:Drivers/GD32F30x_standard_peripheral/Source/gd32f30x_adc.c ****         rcu_periph_reset_disable(RCU_ADC1RST);
  57:Drivers/GD32F30x_standard_peripheral/Source/gd32f30x_adc.c ****         break;
  58:Drivers/GD32F30x_standard_peripheral/Source/gd32f30x_adc.c **** #if (defined(GD32F30X_HD) || defined(GD32F30X_XD))    
  59:Drivers/GD32F30x_standard_peripheral/Source/gd32f30x_adc.c ****     case ADC2:
  60:Drivers/GD32F30x_standard_peripheral/Source/gd32f30x_adc.c ****         rcu_periph_reset_enable(RCU_ADC2RST);
  61:Drivers/GD32F30x_standard_peripheral/Source/gd32f30x_adc.c ****         rcu_periph_reset_disable(RCU_ADC2RST);
  62:Drivers/GD32F30x_standard_peripheral/Source/gd32f30x_adc.c ****         break;
  63:Drivers/GD32F30x_standard_peripheral/Source/gd32f30x_adc.c **** #endif    
  64:Drivers/GD32F30x_standard_peripheral/Source/gd32f30x_adc.c ****     default:
  65:Drivers/GD32F30x_standard_peripheral/Source/gd32f30x_adc.c ****         break;      
  66:Drivers/GD32F30x_standard_peripheral/Source/gd32f30x_adc.c ****     }
ARM GAS  /tmp/ccrXzzSE.s 			page 3


  67:Drivers/GD32F30x_standard_peripheral/Source/gd32f30x_adc.c **** }
  50              		.loc 1 67 1 is_stmt 0 view .LVU3
  51 0018 08BD     		pop	{r3, pc}
  52              	.LVL2:
  53              	.L6:
  51:Drivers/GD32F30x_standard_peripheral/Source/gd32f30x_adc.c ****         rcu_periph_reset_disable(RCU_ADC0RST);
  54              		.loc 1 51 9 is_stmt 1 view .LVU4
  55 001a 40F20930 		movw	r0, #777
  56              	.LVL3:
  51:Drivers/GD32F30x_standard_peripheral/Source/gd32f30x_adc.c ****         rcu_periph_reset_disable(RCU_ADC0RST);
  57              		.loc 1 51 9 is_stmt 0 view .LVU5
  58 001e FFF7FEFF 		bl	rcu_periph_reset_enable
  59              	.LVL4:
  52:Drivers/GD32F30x_standard_peripheral/Source/gd32f30x_adc.c ****         break;
  60              		.loc 1 52 9 is_stmt 1 view .LVU6
  61 0022 40F20930 		movw	r0, #777
  62 0026 FFF7FEFF 		bl	rcu_periph_reset_disable
  63              	.LVL5:
  53:Drivers/GD32F30x_standard_peripheral/Source/gd32f30x_adc.c ****     case ADC1:
  64              		.loc 1 53 9 view .LVU7
  65 002a F5E7     		b	.L1
  66              	.LVL6:
  67              	.L2:
  55:Drivers/GD32F30x_standard_peripheral/Source/gd32f30x_adc.c ****         rcu_periph_reset_disable(RCU_ADC1RST);
  68              		.loc 1 55 9 view .LVU8
  69 002c 40F20A30 		movw	r0, #778
  70              	.LVL7:
  55:Drivers/GD32F30x_standard_peripheral/Source/gd32f30x_adc.c ****         rcu_periph_reset_disable(RCU_ADC1RST);
  71              		.loc 1 55 9 is_stmt 0 view .LVU9
  72 0030 FFF7FEFF 		bl	rcu_periph_reset_enable
  73              	.LVL8:
  56:Drivers/GD32F30x_standard_peripheral/Source/gd32f30x_adc.c ****         break;
  74              		.loc 1 56 9 is_stmt 1 view .LVU10
  75 0034 40F20A30 		movw	r0, #778
  76 0038 FFF7FEFF 		bl	rcu_periph_reset_disable
  77              	.LVL9:
  57:Drivers/GD32F30x_standard_peripheral/Source/gd32f30x_adc.c **** #if (defined(GD32F30X_HD) || defined(GD32F30X_XD))    
  78              		.loc 1 57 9 view .LVU11
  79 003c ECE7     		b	.L1
  80              	.LVL10:
  81              	.L3:
  60:Drivers/GD32F30x_standard_peripheral/Source/gd32f30x_adc.c ****         rcu_periph_reset_disable(RCU_ADC2RST);
  82              		.loc 1 60 9 view .LVU12
  83 003e 40F20F30 		movw	r0, #783
  84              	.LVL11:
  60:Drivers/GD32F30x_standard_peripheral/Source/gd32f30x_adc.c ****         rcu_periph_reset_disable(RCU_ADC2RST);
  85              		.loc 1 60 9 is_stmt 0 view .LVU13
  86 0042 FFF7FEFF 		bl	rcu_periph_reset_enable
  87              	.LVL12:
  61:Drivers/GD32F30x_standard_peripheral/Source/gd32f30x_adc.c ****         break;
  88              		.loc 1 61 9 is_stmt 1 view .LVU14
  89 0046 40F20F30 		movw	r0, #783
  90 004a FFF7FEFF 		bl	rcu_periph_reset_disable
  91              	.LVL13:
  62:Drivers/GD32F30x_standard_peripheral/Source/gd32f30x_adc.c **** #endif    
  92              		.loc 1 62 9 view .LVU15
  93              		.loc 1 67 1 is_stmt 0 view .LVU16
ARM GAS  /tmp/ccrXzzSE.s 			page 4


  94 004e E3E7     		b	.L1
  95              	.L8:
  96              		.align	2
  97              	.L7:
  98 0050 00280140 		.word	1073817600
  99              		.cfi_endproc
 100              	.LFE116:
 102              		.section	.text.adc_enable,"ax",%progbits
 103              		.align	1
 104              		.global	adc_enable
 105              		.syntax unified
 106              		.thumb
 107              		.thumb_func
 109              	adc_enable:
 110              	.LVL14:
 111              	.LFB117:
  68:Drivers/GD32F30x_standard_peripheral/Source/gd32f30x_adc.c **** 
  69:Drivers/GD32F30x_standard_peripheral/Source/gd32f30x_adc.c **** /*!
  70:Drivers/GD32F30x_standard_peripheral/Source/gd32f30x_adc.c ****     \brief      enable ADC interface
  71:Drivers/GD32F30x_standard_peripheral/Source/gd32f30x_adc.c ****     \param[in]  adc_periph: ADCx,x=0,1,2
  72:Drivers/GD32F30x_standard_peripheral/Source/gd32f30x_adc.c ****                 only one among these parameters can be selected
  73:Drivers/GD32F30x_standard_peripheral/Source/gd32f30x_adc.c ****     \param[out] none
  74:Drivers/GD32F30x_standard_peripheral/Source/gd32f30x_adc.c ****     \retval     none
  75:Drivers/GD32F30x_standard_peripheral/Source/gd32f30x_adc.c **** */
  76:Drivers/GD32F30x_standard_peripheral/Source/gd32f30x_adc.c **** void adc_enable(uint32_t adc_periph)
  77:Drivers/GD32F30x_standard_peripheral/Source/gd32f30x_adc.c **** {
 112              		.loc 1 77 1 is_stmt 1 view -0
 113              		.cfi_startproc
 114              		@ args = 0, pretend = 0, frame = 0
 115              		@ frame_needed = 0, uses_anonymous_args = 0
 116              		@ link register save eliminated.
  78:Drivers/GD32F30x_standard_peripheral/Source/gd32f30x_adc.c ****     if(RESET == (ADC_CTL1(adc_periph) & ADC_CTL1_ADCON)){
 117              		.loc 1 78 5 view .LVU18
 118              		.loc 1 78 18 is_stmt 0 view .LVU19
 119 0000 8368     		ldr	r3, [r0, #8]
 120              		.loc 1 78 7 view .LVU20
 121 0002 13F0010F 		tst	r3, #1
 122 0006 03D1     		bne	.L9
  79:Drivers/GD32F30x_standard_peripheral/Source/gd32f30x_adc.c ****         ADC_CTL1(adc_periph) |= (uint32_t)ADC_CTL1_ADCON;
 123              		.loc 1 79 9 is_stmt 1 view .LVU21
 124              		.loc 1 79 30 is_stmt 0 view .LVU22
 125 0008 8368     		ldr	r3, [r0, #8]
 126 000a 43F00103 		orr	r3, r3, #1
 127 000e 8360     		str	r3, [r0, #8]
 128              	.L9:
  80:Drivers/GD32F30x_standard_peripheral/Source/gd32f30x_adc.c ****     }       
  81:Drivers/GD32F30x_standard_peripheral/Source/gd32f30x_adc.c **** }
 129              		.loc 1 81 1 view .LVU23
 130 0010 7047     		bx	lr
 131              		.cfi_endproc
 132              	.LFE117:
 134              		.section	.text.adc_disable,"ax",%progbits
 135              		.align	1
 136              		.global	adc_disable
 137              		.syntax unified
 138              		.thumb
 139              		.thumb_func
ARM GAS  /tmp/ccrXzzSE.s 			page 5


 141              	adc_disable:
 142              	.LVL15:
 143              	.LFB118:
  82:Drivers/GD32F30x_standard_peripheral/Source/gd32f30x_adc.c **** 
  83:Drivers/GD32F30x_standard_peripheral/Source/gd32f30x_adc.c **** /*!
  84:Drivers/GD32F30x_standard_peripheral/Source/gd32f30x_adc.c ****     \brief      disable ADC interface
  85:Drivers/GD32F30x_standard_peripheral/Source/gd32f30x_adc.c ****     \param[in]  adc_periph: ADCx,x=0,1,2
  86:Drivers/GD32F30x_standard_peripheral/Source/gd32f30x_adc.c ****                 only one among these parameters can be selected
  87:Drivers/GD32F30x_standard_peripheral/Source/gd32f30x_adc.c ****     \param[out] none
  88:Drivers/GD32F30x_standard_peripheral/Source/gd32f30x_adc.c ****     \retval     none
  89:Drivers/GD32F30x_standard_peripheral/Source/gd32f30x_adc.c **** */
  90:Drivers/GD32F30x_standard_peripheral/Source/gd32f30x_adc.c **** void adc_disable(uint32_t adc_periph)
  91:Drivers/GD32F30x_standard_peripheral/Source/gd32f30x_adc.c **** {
 144              		.loc 1 91 1 is_stmt 1 view -0
 145              		.cfi_startproc
 146              		@ args = 0, pretend = 0, frame = 0
 147              		@ frame_needed = 0, uses_anonymous_args = 0
 148              		@ link register save eliminated.
  92:Drivers/GD32F30x_standard_peripheral/Source/gd32f30x_adc.c ****     ADC_CTL1(adc_periph) &= ~((uint32_t)ADC_CTL1_ADCON);
 149              		.loc 1 92 5 view .LVU25
 150              		.loc 1 92 26 is_stmt 0 view .LVU26
 151 0000 8368     		ldr	r3, [r0, #8]
 152 0002 23F00103 		bic	r3, r3, #1
 153 0006 8360     		str	r3, [r0, #8]
  93:Drivers/GD32F30x_standard_peripheral/Source/gd32f30x_adc.c **** }
 154              		.loc 1 93 1 view .LVU27
 155 0008 7047     		bx	lr
 156              		.cfi_endproc
 157              	.LFE118:
 159              		.section	.text.adc_calibration_enable,"ax",%progbits
 160              		.align	1
 161              		.global	adc_calibration_enable
 162              		.syntax unified
 163              		.thumb
 164              		.thumb_func
 166              	adc_calibration_enable:
 167              	.LVL16:
 168              	.LFB119:
  94:Drivers/GD32F30x_standard_peripheral/Source/gd32f30x_adc.c **** 
  95:Drivers/GD32F30x_standard_peripheral/Source/gd32f30x_adc.c **** /*!
  96:Drivers/GD32F30x_standard_peripheral/Source/gd32f30x_adc.c ****     \brief      ADC calibration and reset calibration
  97:Drivers/GD32F30x_standard_peripheral/Source/gd32f30x_adc.c ****     \param[in]  adc_periph: ADCx,x=0,1,2
  98:Drivers/GD32F30x_standard_peripheral/Source/gd32f30x_adc.c ****                 only one among these parameters can be selected
  99:Drivers/GD32F30x_standard_peripheral/Source/gd32f30x_adc.c ****     \param[out] none
 100:Drivers/GD32F30x_standard_peripheral/Source/gd32f30x_adc.c ****     \retval     none
 101:Drivers/GD32F30x_standard_peripheral/Source/gd32f30x_adc.c **** */
 102:Drivers/GD32F30x_standard_peripheral/Source/gd32f30x_adc.c **** void adc_calibration_enable(uint32_t adc_periph)
 103:Drivers/GD32F30x_standard_peripheral/Source/gd32f30x_adc.c **** {
 169              		.loc 1 103 1 is_stmt 1 view -0
 170              		.cfi_startproc
 171              		@ args = 0, pretend = 0, frame = 0
 172              		@ frame_needed = 0, uses_anonymous_args = 0
 173              		@ link register save eliminated.
 104:Drivers/GD32F30x_standard_peripheral/Source/gd32f30x_adc.c ****     /* reset the selected ADC calibration registers */
 105:Drivers/GD32F30x_standard_peripheral/Source/gd32f30x_adc.c ****     ADC_CTL1(adc_periph) |= (uint32_t) ADC_CTL1_RSTCLB;
 174              		.loc 1 105 5 view .LVU29
 175              		.loc 1 105 26 is_stmt 0 view .LVU30
ARM GAS  /tmp/ccrXzzSE.s 			page 6


 176 0000 00F10803 		add	r3, r0, #8
 177 0004 8268     		ldr	r2, [r0, #8]
 178 0006 42F00802 		orr	r2, r2, #8
 179 000a 8260     		str	r2, [r0, #8]
 106:Drivers/GD32F30x_standard_peripheral/Source/gd32f30x_adc.c ****     /* check the RSTCLB bit state */
 107:Drivers/GD32F30x_standard_peripheral/Source/gd32f30x_adc.c ****     while((ADC_CTL1(adc_periph) & ADC_CTL1_RSTCLB)){
 180              		.loc 1 107 5 is_stmt 1 view .LVU31
 181              	.L13:
 108:Drivers/GD32F30x_standard_peripheral/Source/gd32f30x_adc.c ****     }
 182              		.loc 1 108 5 discriminator 1 view .LVU32
 107:Drivers/GD32F30x_standard_peripheral/Source/gd32f30x_adc.c ****     }
 183              		.loc 1 107 10 discriminator 1 view .LVU33
 107:Drivers/GD32F30x_standard_peripheral/Source/gd32f30x_adc.c ****     }
 184              		.loc 1 107 12 is_stmt 0 discriminator 1 view .LVU34
 185 000c 1A68     		ldr	r2, [r3]
 107:Drivers/GD32F30x_standard_peripheral/Source/gd32f30x_adc.c ****     }
 186              		.loc 1 107 10 discriminator 1 view .LVU35
 187 000e 12F0080F 		tst	r2, #8
 188 0012 FBD1     		bne	.L13
 109:Drivers/GD32F30x_standard_peripheral/Source/gd32f30x_adc.c ****     /* enable ADC calibration process */
 110:Drivers/GD32F30x_standard_peripheral/Source/gd32f30x_adc.c ****     ADC_CTL1(adc_periph) |= ADC_CTL1_CLB;
 189              		.loc 1 110 5 is_stmt 1 view .LVU36
 190              		.loc 1 110 26 is_stmt 0 view .LVU37
 191 0014 8268     		ldr	r2, [r0, #8]
 192 0016 42F00402 		orr	r2, r2, #4
 193 001a 8260     		str	r2, [r0, #8]
 111:Drivers/GD32F30x_standard_peripheral/Source/gd32f30x_adc.c ****     /* check the CLB bit state */
 112:Drivers/GD32F30x_standard_peripheral/Source/gd32f30x_adc.c ****     while((ADC_CTL1(adc_periph) & ADC_CTL1_CLB)){
 194              		.loc 1 112 5 is_stmt 1 view .LVU38
 195              	.L14:
 113:Drivers/GD32F30x_standard_peripheral/Source/gd32f30x_adc.c ****     }
 196              		.loc 1 113 5 discriminator 1 view .LVU39
 112:Drivers/GD32F30x_standard_peripheral/Source/gd32f30x_adc.c ****     }
 197              		.loc 1 112 10 discriminator 1 view .LVU40
 112:Drivers/GD32F30x_standard_peripheral/Source/gd32f30x_adc.c ****     }
 198              		.loc 1 112 12 is_stmt 0 discriminator 1 view .LVU41
 199 001c 1A68     		ldr	r2, [r3]
 112:Drivers/GD32F30x_standard_peripheral/Source/gd32f30x_adc.c ****     }
 200              		.loc 1 112 10 discriminator 1 view .LVU42
 201 001e 12F0040F 		tst	r2, #4
 202 0022 FBD1     		bne	.L14
 114:Drivers/GD32F30x_standard_peripheral/Source/gd32f30x_adc.c **** }
 203              		.loc 1 114 1 view .LVU43
 204 0024 7047     		bx	lr
 205              		.cfi_endproc
 206              	.LFE119:
 208              		.section	.text.adc_dma_mode_enable,"ax",%progbits
 209              		.align	1
 210              		.global	adc_dma_mode_enable
 211              		.syntax unified
 212              		.thumb
 213              		.thumb_func
 215              	adc_dma_mode_enable:
 216              	.LVL17:
 217              	.LFB120:
 115:Drivers/GD32F30x_standard_peripheral/Source/gd32f30x_adc.c **** 
 116:Drivers/GD32F30x_standard_peripheral/Source/gd32f30x_adc.c **** /*!
ARM GAS  /tmp/ccrXzzSE.s 			page 7


 117:Drivers/GD32F30x_standard_peripheral/Source/gd32f30x_adc.c ****     \brief      enable DMA request 
 118:Drivers/GD32F30x_standard_peripheral/Source/gd32f30x_adc.c ****     \param[in]  adc_periph: ADCx,x=0,1,2
 119:Drivers/GD32F30x_standard_peripheral/Source/gd32f30x_adc.c ****                 only one among these parameters can be selected
 120:Drivers/GD32F30x_standard_peripheral/Source/gd32f30x_adc.c ****     \param[out] none
 121:Drivers/GD32F30x_standard_peripheral/Source/gd32f30x_adc.c ****     \retval     none
 122:Drivers/GD32F30x_standard_peripheral/Source/gd32f30x_adc.c **** */
 123:Drivers/GD32F30x_standard_peripheral/Source/gd32f30x_adc.c **** void adc_dma_mode_enable(uint32_t adc_periph)
 124:Drivers/GD32F30x_standard_peripheral/Source/gd32f30x_adc.c **** {
 218              		.loc 1 124 1 is_stmt 1 view -0
 219              		.cfi_startproc
 220              		@ args = 0, pretend = 0, frame = 0
 221              		@ frame_needed = 0, uses_anonymous_args = 0
 222              		@ link register save eliminated.
 125:Drivers/GD32F30x_standard_peripheral/Source/gd32f30x_adc.c ****     ADC_CTL1(adc_periph) |= (uint32_t)(ADC_CTL1_DMA);
 223              		.loc 1 125 5 view .LVU45
 224              		.loc 1 125 26 is_stmt 0 view .LVU46
 225 0000 8368     		ldr	r3, [r0, #8]
 226 0002 43F48073 		orr	r3, r3, #256
 227 0006 8360     		str	r3, [r0, #8]
 126:Drivers/GD32F30x_standard_peripheral/Source/gd32f30x_adc.c **** }
 228              		.loc 1 126 1 view .LVU47
 229 0008 7047     		bx	lr
 230              		.cfi_endproc
 231              	.LFE120:
 233              		.section	.text.adc_dma_mode_disable,"ax",%progbits
 234              		.align	1
 235              		.global	adc_dma_mode_disable
 236              		.syntax unified
 237              		.thumb
 238              		.thumb_func
 240              	adc_dma_mode_disable:
 241              	.LVL18:
 242              	.LFB121:
 127:Drivers/GD32F30x_standard_peripheral/Source/gd32f30x_adc.c **** 
 128:Drivers/GD32F30x_standard_peripheral/Source/gd32f30x_adc.c **** /*!
 129:Drivers/GD32F30x_standard_peripheral/Source/gd32f30x_adc.c ****     \brief      disable DMA request 
 130:Drivers/GD32F30x_standard_peripheral/Source/gd32f30x_adc.c ****     \param[in]  adc_periph: ADCx,x=0,1,2
 131:Drivers/GD32F30x_standard_peripheral/Source/gd32f30x_adc.c ****                 only one among these parameters can be selected
 132:Drivers/GD32F30x_standard_peripheral/Source/gd32f30x_adc.c ****     \param[out] none
 133:Drivers/GD32F30x_standard_peripheral/Source/gd32f30x_adc.c ****     \retval     none
 134:Drivers/GD32F30x_standard_peripheral/Source/gd32f30x_adc.c **** */
 135:Drivers/GD32F30x_standard_peripheral/Source/gd32f30x_adc.c **** void adc_dma_mode_disable(uint32_t adc_periph)
 136:Drivers/GD32F30x_standard_peripheral/Source/gd32f30x_adc.c **** {
 243              		.loc 1 136 1 is_stmt 1 view -0
 244              		.cfi_startproc
 245              		@ args = 0, pretend = 0, frame = 0
 246              		@ frame_needed = 0, uses_anonymous_args = 0
 247              		@ link register save eliminated.
 137:Drivers/GD32F30x_standard_peripheral/Source/gd32f30x_adc.c ****     ADC_CTL1(adc_periph) &= ~((uint32_t)ADC_CTL1_DMA);
 248              		.loc 1 137 5 view .LVU49
 249              		.loc 1 137 26 is_stmt 0 view .LVU50
 250 0000 8368     		ldr	r3, [r0, #8]
 251 0002 23F48073 		bic	r3, r3, #256
 252 0006 8360     		str	r3, [r0, #8]
 138:Drivers/GD32F30x_standard_peripheral/Source/gd32f30x_adc.c **** }
 253              		.loc 1 138 1 view .LVU51
 254 0008 7047     		bx	lr
ARM GAS  /tmp/ccrXzzSE.s 			page 8


 255              		.cfi_endproc
 256              	.LFE121:
 258              		.section	.text.adc_tempsensor_vrefint_enable,"ax",%progbits
 259              		.align	1
 260              		.global	adc_tempsensor_vrefint_enable
 261              		.syntax unified
 262              		.thumb
 263              		.thumb_func
 265              	adc_tempsensor_vrefint_enable:
 266              	.LFB122:
 139:Drivers/GD32F30x_standard_peripheral/Source/gd32f30x_adc.c **** 
 140:Drivers/GD32F30x_standard_peripheral/Source/gd32f30x_adc.c **** /*!
 141:Drivers/GD32F30x_standard_peripheral/Source/gd32f30x_adc.c ****     \brief      enable the temperature sensor and Vrefint channel
 142:Drivers/GD32F30x_standard_peripheral/Source/gd32f30x_adc.c ****     \param[in]  none
 143:Drivers/GD32F30x_standard_peripheral/Source/gd32f30x_adc.c ****     \param[out] none
 144:Drivers/GD32F30x_standard_peripheral/Source/gd32f30x_adc.c ****     \retval     none
 145:Drivers/GD32F30x_standard_peripheral/Source/gd32f30x_adc.c **** */
 146:Drivers/GD32F30x_standard_peripheral/Source/gd32f30x_adc.c **** void adc_tempsensor_vrefint_enable(void)
 147:Drivers/GD32F30x_standard_peripheral/Source/gd32f30x_adc.c **** {
 267              		.loc 1 147 1 is_stmt 1 view -0
 268              		.cfi_startproc
 269              		@ args = 0, pretend = 0, frame = 0
 270              		@ frame_needed = 0, uses_anonymous_args = 0
 271              		@ link register save eliminated.
 148:Drivers/GD32F30x_standard_peripheral/Source/gd32f30x_adc.c ****     /* enable the temperature sensor and Vrefint channel */
 149:Drivers/GD32F30x_standard_peripheral/Source/gd32f30x_adc.c ****     ADC_CTL1(ADC0) |= ADC_CTL1_TSVREN;
 272              		.loc 1 149 5 view .LVU53
 273              		.loc 1 149 20 is_stmt 0 view .LVU54
 274 0000 034A     		ldr	r2, .L18
 275 0002 D2F80834 		ldr	r3, [r2, #1032]
 276 0006 43F40003 		orr	r3, r3, #8388608
 277 000a C2F80834 		str	r3, [r2, #1032]
 150:Drivers/GD32F30x_standard_peripheral/Source/gd32f30x_adc.c **** }
 278              		.loc 1 150 1 view .LVU55
 279 000e 7047     		bx	lr
 280              	.L19:
 281              		.align	2
 282              	.L18:
 283 0010 00200140 		.word	1073815552
 284              		.cfi_endproc
 285              	.LFE122:
 287              		.section	.text.adc_tempsensor_vrefint_disable,"ax",%progbits
 288              		.align	1
 289              		.global	adc_tempsensor_vrefint_disable
 290              		.syntax unified
 291              		.thumb
 292              		.thumb_func
 294              	adc_tempsensor_vrefint_disable:
 295              	.LFB123:
 151:Drivers/GD32F30x_standard_peripheral/Source/gd32f30x_adc.c **** 
 152:Drivers/GD32F30x_standard_peripheral/Source/gd32f30x_adc.c **** /*!
 153:Drivers/GD32F30x_standard_peripheral/Source/gd32f30x_adc.c ****     \brief      disable the temperature sensor and Vrefint channel
 154:Drivers/GD32F30x_standard_peripheral/Source/gd32f30x_adc.c ****     \param[in]  none
 155:Drivers/GD32F30x_standard_peripheral/Source/gd32f30x_adc.c ****     \param[out] none
 156:Drivers/GD32F30x_standard_peripheral/Source/gd32f30x_adc.c ****     \retval     none
 157:Drivers/GD32F30x_standard_peripheral/Source/gd32f30x_adc.c **** */
 158:Drivers/GD32F30x_standard_peripheral/Source/gd32f30x_adc.c **** void adc_tempsensor_vrefint_disable(void)
ARM GAS  /tmp/ccrXzzSE.s 			page 9


 159:Drivers/GD32F30x_standard_peripheral/Source/gd32f30x_adc.c **** {
 296              		.loc 1 159 1 is_stmt 1 view -0
 297              		.cfi_startproc
 298              		@ args = 0, pretend = 0, frame = 0
 299              		@ frame_needed = 0, uses_anonymous_args = 0
 300              		@ link register save eliminated.
 160:Drivers/GD32F30x_standard_peripheral/Source/gd32f30x_adc.c ****     /* disable the temperature sensor and Vrefint channel */
 161:Drivers/GD32F30x_standard_peripheral/Source/gd32f30x_adc.c ****     ADC_CTL1(ADC0) &= ~ADC_CTL1_TSVREN;
 301              		.loc 1 161 5 view .LVU57
 302              		.loc 1 161 20 is_stmt 0 view .LVU58
 303 0000 034A     		ldr	r2, .L21
 304 0002 D2F80834 		ldr	r3, [r2, #1032]
 305 0006 23F40003 		bic	r3, r3, #8388608
 306 000a C2F80834 		str	r3, [r2, #1032]
 162:Drivers/GD32F30x_standard_peripheral/Source/gd32f30x_adc.c **** }
 307              		.loc 1 162 1 view .LVU59
 308 000e 7047     		bx	lr
 309              	.L22:
 310              		.align	2
 311              	.L21:
 312 0010 00200140 		.word	1073815552
 313              		.cfi_endproc
 314              	.LFE123:
 316              		.section	.text.adc_resolution_config,"ax",%progbits
 317              		.align	1
 318              		.global	adc_resolution_config
 319              		.syntax unified
 320              		.thumb
 321              		.thumb_func
 323              	adc_resolution_config:
 324              	.LVL19:
 325              	.LFB124:
 163:Drivers/GD32F30x_standard_peripheral/Source/gd32f30x_adc.c **** 
 164:Drivers/GD32F30x_standard_peripheral/Source/gd32f30x_adc.c **** /*!
 165:Drivers/GD32F30x_standard_peripheral/Source/gd32f30x_adc.c ****     \brief      configure ADC resolution 
 166:Drivers/GD32F30x_standard_peripheral/Source/gd32f30x_adc.c ****     \param[in]  adc_periph: ADCx,x=0,1,2
 167:Drivers/GD32F30x_standard_peripheral/Source/gd32f30x_adc.c ****                 only one among these parameters can be selected
 168:Drivers/GD32F30x_standard_peripheral/Source/gd32f30x_adc.c ****     \param[in]  resolution: ADC resolution
 169:Drivers/GD32F30x_standard_peripheral/Source/gd32f30x_adc.c ****                 only one among these parameters can be selected
 170:Drivers/GD32F30x_standard_peripheral/Source/gd32f30x_adc.c ****       \arg        ADC_RESOLUTION_12B: 12-bit ADC resolution
 171:Drivers/GD32F30x_standard_peripheral/Source/gd32f30x_adc.c ****       \arg        ADC_RESOLUTION_10B: 10-bit ADC resolution
 172:Drivers/GD32F30x_standard_peripheral/Source/gd32f30x_adc.c ****       \arg        ADC_RESOLUTION_8B: 8-bit ADC resolution
 173:Drivers/GD32F30x_standard_peripheral/Source/gd32f30x_adc.c ****       \arg        ADC_RESOLUTION_6B: 6-bit ADC resolution
 174:Drivers/GD32F30x_standard_peripheral/Source/gd32f30x_adc.c ****     \param[out] none
 175:Drivers/GD32F30x_standard_peripheral/Source/gd32f30x_adc.c ****     \retval     none
 176:Drivers/GD32F30x_standard_peripheral/Source/gd32f30x_adc.c **** */
 177:Drivers/GD32F30x_standard_peripheral/Source/gd32f30x_adc.c **** void adc_resolution_config(uint32_t adc_periph , uint32_t resolution)
 178:Drivers/GD32F30x_standard_peripheral/Source/gd32f30x_adc.c **** {
 326              		.loc 1 178 1 is_stmt 1 view -0
 327              		.cfi_startproc
 328              		@ args = 0, pretend = 0, frame = 0
 329              		@ frame_needed = 0, uses_anonymous_args = 0
 330              		@ link register save eliminated.
 179:Drivers/GD32F30x_standard_peripheral/Source/gd32f30x_adc.c ****     ADC_OVSAMPCTL(adc_periph) &= ~((uint32_t)ADC_OVSAMPCTL_DRES);
 331              		.loc 1 179 5 view .LVU61
 332              		.loc 1 179 31 is_stmt 0 view .LVU62
 333 0000 D0F88020 		ldr	r2, [r0, #128]
ARM GAS  /tmp/ccrXzzSE.s 			page 10


 334 0004 22F44052 		bic	r2, r2, #12288
 335 0008 C0F88020 		str	r2, [r0, #128]
 180:Drivers/GD32F30x_standard_peripheral/Source/gd32f30x_adc.c ****     ADC_OVSAMPCTL(adc_periph) |= (uint32_t)resolution;
 336              		.loc 1 180 5 is_stmt 1 view .LVU63
 337              		.loc 1 180 31 is_stmt 0 view .LVU64
 338 000c D0F88030 		ldr	r3, [r0, #128]
 339 0010 0B43     		orrs	r3, r3, r1
 340 0012 C0F88030 		str	r3, [r0, #128]
 181:Drivers/GD32F30x_standard_peripheral/Source/gd32f30x_adc.c **** }
 341              		.loc 1 181 1 view .LVU65
 342 0016 7047     		bx	lr
 343              		.cfi_endproc
 344              	.LFE124:
 346              		.section	.text.adc_discontinuous_mode_config,"ax",%progbits
 347              		.align	1
 348              		.global	adc_discontinuous_mode_config
 349              		.syntax unified
 350              		.thumb
 351              		.thumb_func
 353              	adc_discontinuous_mode_config:
 354              	.LVL20:
 355              	.LFB125:
 182:Drivers/GD32F30x_standard_peripheral/Source/gd32f30x_adc.c **** 
 183:Drivers/GD32F30x_standard_peripheral/Source/gd32f30x_adc.c **** /*!
 184:Drivers/GD32F30x_standard_peripheral/Source/gd32f30x_adc.c ****     \brief      configure ADC discontinuous mode 
 185:Drivers/GD32F30x_standard_peripheral/Source/gd32f30x_adc.c ****     \param[in]  adc_periph: ADCx,x=0,1,2
 186:Drivers/GD32F30x_standard_peripheral/Source/gd32f30x_adc.c ****                 only one among these parameters can be selected
 187:Drivers/GD32F30x_standard_peripheral/Source/gd32f30x_adc.c ****     \param[in]  adc_channel_group: select the channel group
 188:Drivers/GD32F30x_standard_peripheral/Source/gd32f30x_adc.c ****                 only one among these parameters can be selected
 189:Drivers/GD32F30x_standard_peripheral/Source/gd32f30x_adc.c ****       \arg        ADC_REGULAR_CHANNEL: regular channel group
 190:Drivers/GD32F30x_standard_peripheral/Source/gd32f30x_adc.c ****       \arg        ADC_INSERTED_CHANNEL: inserted channel group
 191:Drivers/GD32F30x_standard_peripheral/Source/gd32f30x_adc.c ****       \arg        ADC_CHANNEL_DISCON_DISABLE: disable discontinuous mode of regular & inserted chan
 192:Drivers/GD32F30x_standard_peripheral/Source/gd32f30x_adc.c ****     \param[in]  length: number of conversions in discontinuous mode,the number can be 1..8
 193:Drivers/GD32F30x_standard_peripheral/Source/gd32f30x_adc.c ****                         for regular channel ,the number has no effect for inserted channel
 194:Drivers/GD32F30x_standard_peripheral/Source/gd32f30x_adc.c ****     \param[out] none
 195:Drivers/GD32F30x_standard_peripheral/Source/gd32f30x_adc.c ****     \retval     none
 196:Drivers/GD32F30x_standard_peripheral/Source/gd32f30x_adc.c **** */
 197:Drivers/GD32F30x_standard_peripheral/Source/gd32f30x_adc.c **** void adc_discontinuous_mode_config(uint32_t adc_periph, uint8_t adc_channel_group, uint8_t length)
 198:Drivers/GD32F30x_standard_peripheral/Source/gd32f30x_adc.c **** {
 356              		.loc 1 198 1 is_stmt 1 view -0
 357              		.cfi_startproc
 358              		@ args = 0, pretend = 0, frame = 0
 359              		@ frame_needed = 0, uses_anonymous_args = 0
 360              		@ link register save eliminated.
 199:Drivers/GD32F30x_standard_peripheral/Source/gd32f30x_adc.c ****     ADC_CTL0(adc_periph) &= ~((uint32_t)( ADC_CTL0_DISRC | ADC_CTL0_DISIC ));
 361              		.loc 1 199 5 view .LVU67
 362              		.loc 1 199 26 is_stmt 0 view .LVU68
 363 0000 4368     		ldr	r3, [r0, #4]
 364 0002 23F4C053 		bic	r3, r3, #6144
 365 0006 4360     		str	r3, [r0, #4]
 200:Drivers/GD32F30x_standard_peripheral/Source/gd32f30x_adc.c ****     switch(adc_channel_group){
 366              		.loc 1 200 5 is_stmt 1 view .LVU69
 367 0008 0129     		cmp	r1, #1
 368 000a 02D0     		beq	.L25
 369 000c 0229     		cmp	r1, #2
 370 000e 0FD0     		beq	.L26
 371 0010 7047     		bx	lr
ARM GAS  /tmp/ccrXzzSE.s 			page 11


 372              	.L25:
 201:Drivers/GD32F30x_standard_peripheral/Source/gd32f30x_adc.c ****     case ADC_REGULAR_CHANNEL:
 202:Drivers/GD32F30x_standard_peripheral/Source/gd32f30x_adc.c ****         /* config the number of conversions in discontinuous mode  */
 203:Drivers/GD32F30x_standard_peripheral/Source/gd32f30x_adc.c ****         ADC_CTL0(adc_periph) &= ~((uint32_t)ADC_CTL0_DISNUM);
 373              		.loc 1 203 9 view .LVU70
 374              		.loc 1 203 30 is_stmt 0 view .LVU71
 375 0012 4368     		ldr	r3, [r0, #4]
 376 0014 23F46043 		bic	r3, r3, #57344
 377 0018 4360     		str	r3, [r0, #4]
 204:Drivers/GD32F30x_standard_peripheral/Source/gd32f30x_adc.c ****         ADC_CTL0(adc_periph) |= CTL0_DISNUM(((uint32_t)length - 1U));
 378              		.loc 1 204 9 is_stmt 1 view .LVU72
 379              		.loc 1 204 30 is_stmt 0 view .LVU73
 380 001a 4368     		ldr	r3, [r0, #4]
 381              		.loc 1 204 33 view .LVU74
 382 001c 013A     		subs	r2, r2, #1
 383              	.LVL21:
 384              		.loc 1 204 33 view .LVU75
 385 001e 5203     		lsls	r2, r2, #13
 386 0020 92B2     		uxth	r2, r2
 387              		.loc 1 204 30 view .LVU76
 388 0022 1A43     		orrs	r2, r2, r3
 389 0024 4260     		str	r2, [r0, #4]
 205:Drivers/GD32F30x_standard_peripheral/Source/gd32f30x_adc.c ****     
 206:Drivers/GD32F30x_standard_peripheral/Source/gd32f30x_adc.c ****         ADC_CTL0(adc_periph) |= (uint32_t)ADC_CTL0_DISRC;
 390              		.loc 1 206 9 is_stmt 1 view .LVU77
 391              		.loc 1 206 30 is_stmt 0 view .LVU78
 392 0026 4368     		ldr	r3, [r0, #4]
 393 0028 43F40063 		orr	r3, r3, #2048
 394 002c 4360     		str	r3, [r0, #4]
 207:Drivers/GD32F30x_standard_peripheral/Source/gd32f30x_adc.c ****         break;
 395              		.loc 1 207 9 is_stmt 1 view .LVU79
 396 002e 7047     		bx	lr
 397              	.LVL22:
 398              	.L26:
 208:Drivers/GD32F30x_standard_peripheral/Source/gd32f30x_adc.c ****     case ADC_INSERTED_CHANNEL:
 209:Drivers/GD32F30x_standard_peripheral/Source/gd32f30x_adc.c ****         ADC_CTL0(adc_periph) |= (uint32_t)ADC_CTL0_DISIC;
 399              		.loc 1 209 9 view .LVU80
 400              		.loc 1 209 30 is_stmt 0 view .LVU81
 401 0030 4368     		ldr	r3, [r0, #4]
 402 0032 43F48053 		orr	r3, r3, #4096
 403 0036 4360     		str	r3, [r0, #4]
 210:Drivers/GD32F30x_standard_peripheral/Source/gd32f30x_adc.c ****         break;
 404              		.loc 1 210 9 is_stmt 1 view .LVU82
 211:Drivers/GD32F30x_standard_peripheral/Source/gd32f30x_adc.c ****     case ADC_CHANNEL_DISCON_DISABLE:
 212:Drivers/GD32F30x_standard_peripheral/Source/gd32f30x_adc.c ****     default:
 213:Drivers/GD32F30x_standard_peripheral/Source/gd32f30x_adc.c ****         break;
 214:Drivers/GD32F30x_standard_peripheral/Source/gd32f30x_adc.c ****     }
 215:Drivers/GD32F30x_standard_peripheral/Source/gd32f30x_adc.c **** }
 405              		.loc 1 215 1 is_stmt 0 view .LVU83
 406 0038 7047     		bx	lr
 407              		.cfi_endproc
 408              	.LFE125:
 410              		.section	.text.adc_mode_config,"ax",%progbits
 411              		.align	1
 412              		.global	adc_mode_config
 413              		.syntax unified
 414              		.thumb
ARM GAS  /tmp/ccrXzzSE.s 			page 12


 415              		.thumb_func
 417              	adc_mode_config:
 418              	.LVL23:
 419              	.LFB126:
 216:Drivers/GD32F30x_standard_peripheral/Source/gd32f30x_adc.c **** 
 217:Drivers/GD32F30x_standard_peripheral/Source/gd32f30x_adc.c **** /*!
 218:Drivers/GD32F30x_standard_peripheral/Source/gd32f30x_adc.c ****     \brief      configure the ADC sync mode
 219:Drivers/GD32F30x_standard_peripheral/Source/gd32f30x_adc.c ****     \param[in]  mode: ADC mode
 220:Drivers/GD32F30x_standard_peripheral/Source/gd32f30x_adc.c ****                 only one among these parameters can be selected
 221:Drivers/GD32F30x_standard_peripheral/Source/gd32f30x_adc.c ****       \arg        ADC_MODE_FREE: all the ADCs work independently
 222:Drivers/GD32F30x_standard_peripheral/Source/gd32f30x_adc.c ****       \arg        ADC_DAUL_REGULAL_PARALLEL_INSERTED_PARALLEL: ADC0 and ADC1 work in combined regul
 223:Drivers/GD32F30x_standard_peripheral/Source/gd32f30x_adc.c ****       \arg        ADC_DAUL_REGULAL_PARALLEL_INSERTED_ROTATION: ADC0 and ADC1 work in combined regul
 224:Drivers/GD32F30x_standard_peripheral/Source/gd32f30x_adc.c ****       \arg        ADC_DAUL_INSERTED_PARALLEL_REGULAL_FOLLOWUP_FAST: ADC0 and ADC1 work in combined 
 225:Drivers/GD32F30x_standard_peripheral/Source/gd32f30x_adc.c ****       \arg        ADC_DAUL_INSERTED_PARALLEL_REGULAL_FOLLOWUP_SLOW: ADC0 and ADC1 work in combined 
 226:Drivers/GD32F30x_standard_peripheral/Source/gd32f30x_adc.c ****       \arg        ADC_DAUL_INSERTED_PARALLEL: ADC0 and ADC1 work in inserted parallel mode only
 227:Drivers/GD32F30x_standard_peripheral/Source/gd32f30x_adc.c ****       \arg        ADC_DAUL_REGULAL_PARALLEL: ADC0 and ADC1 work in regular parallel mode only
 228:Drivers/GD32F30x_standard_peripheral/Source/gd32f30x_adc.c ****       \arg        ADC_DAUL_REGULAL_FOLLOWUP_FAST: ADC0 and ADC1 work in follow-up fast mode only
 229:Drivers/GD32F30x_standard_peripheral/Source/gd32f30x_adc.c ****       \arg        ADC_DAUL_REGULAL_FOLLOWUP_SLOW: ADC0 and ADC1 work in follow-up slow mode only
 230:Drivers/GD32F30x_standard_peripheral/Source/gd32f30x_adc.c ****       \arg        ADC_DAUL_INSERTED_TRRIGGER_ROTATION: ADC0 and ADC1 work in trigger rotation mode 
 231:Drivers/GD32F30x_standard_peripheral/Source/gd32f30x_adc.c ****     \param[out] none
 232:Drivers/GD32F30x_standard_peripheral/Source/gd32f30x_adc.c ****     \retval     none
 233:Drivers/GD32F30x_standard_peripheral/Source/gd32f30x_adc.c **** */
 234:Drivers/GD32F30x_standard_peripheral/Source/gd32f30x_adc.c **** void adc_mode_config(uint32_t mode)
 235:Drivers/GD32F30x_standard_peripheral/Source/gd32f30x_adc.c **** {
 420              		.loc 1 235 1 is_stmt 1 view -0
 421              		.cfi_startproc
 422              		@ args = 0, pretend = 0, frame = 0
 423              		@ frame_needed = 0, uses_anonymous_args = 0
 424              		@ link register save eliminated.
 236:Drivers/GD32F30x_standard_peripheral/Source/gd32f30x_adc.c ****     ADC_CTL0(ADC0) &= ~(ADC_CTL0_SYNCM);
 425              		.loc 1 236 5 view .LVU85
 426              		.loc 1 236 20 is_stmt 0 view .LVU86
 427 0000 064B     		ldr	r3, .L29
 428 0002 D3F80414 		ldr	r1, [r3, #1028]
 429 0006 21F47021 		bic	r1, r1, #983040
 430 000a C3F80414 		str	r1, [r3, #1028]
 237:Drivers/GD32F30x_standard_peripheral/Source/gd32f30x_adc.c ****     ADC_CTL0(ADC0) |= mode;
 431              		.loc 1 237 5 is_stmt 1 view .LVU87
 432              		.loc 1 237 20 is_stmt 0 view .LVU88
 433 000e D3F80424 		ldr	r2, [r3, #1028]
 434 0012 0243     		orrs	r2, r2, r0
 435 0014 C3F80424 		str	r2, [r3, #1028]
 238:Drivers/GD32F30x_standard_peripheral/Source/gd32f30x_adc.c **** }
 436              		.loc 1 238 1 view .LVU89
 437 0018 7047     		bx	lr
 438              	.L30:
 439 001a 00BF     		.align	2
 440              	.L29:
 441 001c 00200140 		.word	1073815552
 442              		.cfi_endproc
 443              	.LFE126:
 445              		.section	.text.adc_special_function_config,"ax",%progbits
 446              		.align	1
 447              		.global	adc_special_function_config
 448              		.syntax unified
 449              		.thumb
 450              		.thumb_func
ARM GAS  /tmp/ccrXzzSE.s 			page 13


 452              	adc_special_function_config:
 453              	.LVL24:
 454              	.LFB127:
 239:Drivers/GD32F30x_standard_peripheral/Source/gd32f30x_adc.c **** 
 240:Drivers/GD32F30x_standard_peripheral/Source/gd32f30x_adc.c **** /*!
 241:Drivers/GD32F30x_standard_peripheral/Source/gd32f30x_adc.c ****     \brief      enable or disable ADC special function
 242:Drivers/GD32F30x_standard_peripheral/Source/gd32f30x_adc.c ****     \param[in]  adc_periph: ADCx,x=0,1,2
 243:Drivers/GD32F30x_standard_peripheral/Source/gd32f30x_adc.c ****                 only one among these parameters can be selected
 244:Drivers/GD32F30x_standard_peripheral/Source/gd32f30x_adc.c ****     \param[in]  function: the function to config
 245:Drivers/GD32F30x_standard_peripheral/Source/gd32f30x_adc.c ****                 one or more parameters can be selected below
 246:Drivers/GD32F30x_standard_peripheral/Source/gd32f30x_adc.c ****       \arg        ADC_SCAN_MODE: scan mode select
 247:Drivers/GD32F30x_standard_peripheral/Source/gd32f30x_adc.c ****       \arg        ADC_INSERTED_CHANNEL_AUTO: inserted channel group convert automatically
 248:Drivers/GD32F30x_standard_peripheral/Source/gd32f30x_adc.c ****       \arg        ADC_CONTINUOUS_MODE: continuous mode select
 249:Drivers/GD32F30x_standard_peripheral/Source/gd32f30x_adc.c ****     \param[in]  newvalue: ENABLE or DISABLE
 250:Drivers/GD32F30x_standard_peripheral/Source/gd32f30x_adc.c ****     \param[out] none
 251:Drivers/GD32F30x_standard_peripheral/Source/gd32f30x_adc.c ****     \retval     none
 252:Drivers/GD32F30x_standard_peripheral/Source/gd32f30x_adc.c **** */
 253:Drivers/GD32F30x_standard_peripheral/Source/gd32f30x_adc.c **** void adc_special_function_config(uint32_t adc_periph , uint32_t function , ControlStatus newvalue)
 254:Drivers/GD32F30x_standard_peripheral/Source/gd32f30x_adc.c **** {
 455              		.loc 1 254 1 is_stmt 1 view -0
 456              		.cfi_startproc
 457              		@ args = 0, pretend = 0, frame = 0
 458              		@ frame_needed = 0, uses_anonymous_args = 0
 459              		@ link register save eliminated.
 255:Drivers/GD32F30x_standard_peripheral/Source/gd32f30x_adc.c ****     if(newvalue){
 460              		.loc 1 255 5 view .LVU91
 461              		.loc 1 255 7 is_stmt 0 view .LVU92
 462 0000 AAB1     		cbz	r2, .L32
 256:Drivers/GD32F30x_standard_peripheral/Source/gd32f30x_adc.c ****         if(0U != (function & ADC_SCAN_MODE)){
 463              		.loc 1 256 9 is_stmt 1 view .LVU93
 464              		.loc 1 256 11 is_stmt 0 view .LVU94
 465 0002 11F4807F 		tst	r1, #256
 466 0006 03D0     		beq	.L33
 257:Drivers/GD32F30x_standard_peripheral/Source/gd32f30x_adc.c ****             ADC_CTL0(adc_periph) |= ADC_SCAN_MODE;
 467              		.loc 1 257 13 is_stmt 1 view .LVU95
 468              		.loc 1 257 34 is_stmt 0 view .LVU96
 469 0008 4368     		ldr	r3, [r0, #4]
 470 000a 43F48073 		orr	r3, r3, #256
 471 000e 4360     		str	r3, [r0, #4]
 472              	.L33:
 258:Drivers/GD32F30x_standard_peripheral/Source/gd32f30x_adc.c ****         }
 259:Drivers/GD32F30x_standard_peripheral/Source/gd32f30x_adc.c ****         if(0U != (function & ADC_INSERTED_CHANNEL_AUTO)){
 473              		.loc 1 259 9 is_stmt 1 view .LVU97
 474              		.loc 1 259 11 is_stmt 0 view .LVU98
 475 0010 11F4806F 		tst	r1, #1024
 476 0014 03D0     		beq	.L34
 260:Drivers/GD32F30x_standard_peripheral/Source/gd32f30x_adc.c ****             ADC_CTL0(adc_periph) |= ADC_INSERTED_CHANNEL_AUTO;
 477              		.loc 1 260 13 is_stmt 1 view .LVU99
 478              		.loc 1 260 34 is_stmt 0 view .LVU100
 479 0016 4368     		ldr	r3, [r0, #4]
 480 0018 43F48063 		orr	r3, r3, #1024
 481 001c 4360     		str	r3, [r0, #4]
 482              	.L34:
 261:Drivers/GD32F30x_standard_peripheral/Source/gd32f30x_adc.c ****         } 
 262:Drivers/GD32F30x_standard_peripheral/Source/gd32f30x_adc.c ****         if(0U != (function & ADC_CONTINUOUS_MODE)){
 483              		.loc 1 262 9 is_stmt 1 view .LVU101
 484              		.loc 1 262 11 is_stmt 0 view .LVU102
ARM GAS  /tmp/ccrXzzSE.s 			page 14


 485 001e 11F0020F 		tst	r1, #2
 486 0022 19D0     		beq	.L31
 263:Drivers/GD32F30x_standard_peripheral/Source/gd32f30x_adc.c ****             ADC_CTL1(adc_periph) |= ADC_CONTINUOUS_MODE;
 487              		.loc 1 263 13 is_stmt 1 view .LVU103
 488              		.loc 1 263 34 is_stmt 0 view .LVU104
 489 0024 8368     		ldr	r3, [r0, #8]
 490 0026 43F00203 		orr	r3, r3, #2
 491 002a 8360     		str	r3, [r0, #8]
 492 002c 7047     		bx	lr
 493              	.L32:
 264:Drivers/GD32F30x_standard_peripheral/Source/gd32f30x_adc.c ****         }        
 265:Drivers/GD32F30x_standard_peripheral/Source/gd32f30x_adc.c ****     }else{
 266:Drivers/GD32F30x_standard_peripheral/Source/gd32f30x_adc.c ****         if(0U != (function & ADC_SCAN_MODE)){
 494              		.loc 1 266 9 is_stmt 1 view .LVU105
 495              		.loc 1 266 11 is_stmt 0 view .LVU106
 496 002e 11F4807F 		tst	r1, #256
 497 0032 03D0     		beq	.L36
 267:Drivers/GD32F30x_standard_peripheral/Source/gd32f30x_adc.c ****             ADC_CTL0(adc_periph) &= ~ADC_SCAN_MODE;
 498              		.loc 1 267 13 is_stmt 1 view .LVU107
 499              		.loc 1 267 34 is_stmt 0 view .LVU108
 500 0034 4368     		ldr	r3, [r0, #4]
 501 0036 23F48073 		bic	r3, r3, #256
 502 003a 4360     		str	r3, [r0, #4]
 503              	.L36:
 268:Drivers/GD32F30x_standard_peripheral/Source/gd32f30x_adc.c ****         }
 269:Drivers/GD32F30x_standard_peripheral/Source/gd32f30x_adc.c ****         if(0U != (function & ADC_INSERTED_CHANNEL_AUTO)){
 504              		.loc 1 269 9 is_stmt 1 view .LVU109
 505              		.loc 1 269 11 is_stmt 0 view .LVU110
 506 003c 11F4806F 		tst	r1, #1024
 507 0040 03D0     		beq	.L37
 270:Drivers/GD32F30x_standard_peripheral/Source/gd32f30x_adc.c ****             ADC_CTL0(adc_periph) &= ~ADC_INSERTED_CHANNEL_AUTO;
 508              		.loc 1 270 13 is_stmt 1 view .LVU111
 509              		.loc 1 270 34 is_stmt 0 view .LVU112
 510 0042 4368     		ldr	r3, [r0, #4]
 511 0044 23F48063 		bic	r3, r3, #1024
 512 0048 4360     		str	r3, [r0, #4]
 513              	.L37:
 271:Drivers/GD32F30x_standard_peripheral/Source/gd32f30x_adc.c ****         } 
 272:Drivers/GD32F30x_standard_peripheral/Source/gd32f30x_adc.c ****         if(0U != (function & ADC_CONTINUOUS_MODE)){
 514              		.loc 1 272 9 is_stmt 1 view .LVU113
 515              		.loc 1 272 11 is_stmt 0 view .LVU114
 516 004a 11F0020F 		tst	r1, #2
 517 004e 03D0     		beq	.L31
 273:Drivers/GD32F30x_standard_peripheral/Source/gd32f30x_adc.c ****             ADC_CTL1(adc_periph) &= ~ADC_CONTINUOUS_MODE;
 518              		.loc 1 273 13 is_stmt 1 view .LVU115
 519              		.loc 1 273 34 is_stmt 0 view .LVU116
 520 0050 8368     		ldr	r3, [r0, #8]
 521 0052 23F00203 		bic	r3, r3, #2
 522 0056 8360     		str	r3, [r0, #8]
 523              	.L31:
 274:Drivers/GD32F30x_standard_peripheral/Source/gd32f30x_adc.c ****         }       
 275:Drivers/GD32F30x_standard_peripheral/Source/gd32f30x_adc.c ****     }
 276:Drivers/GD32F30x_standard_peripheral/Source/gd32f30x_adc.c **** }
 524              		.loc 1 276 1 view .LVU117
 525 0058 7047     		bx	lr
 526              		.cfi_endproc
 527              	.LFE127:
ARM GAS  /tmp/ccrXzzSE.s 			page 15


 529              		.section	.text.adc_data_alignment_config,"ax",%progbits
 530              		.align	1
 531              		.global	adc_data_alignment_config
 532              		.syntax unified
 533              		.thumb
 534              		.thumb_func
 536              	adc_data_alignment_config:
 537              	.LVL25:
 538              	.LFB128:
 277:Drivers/GD32F30x_standard_peripheral/Source/gd32f30x_adc.c **** 
 278:Drivers/GD32F30x_standard_peripheral/Source/gd32f30x_adc.c **** /*!
 279:Drivers/GD32F30x_standard_peripheral/Source/gd32f30x_adc.c ****     \brief      configure ADC data alignment 
 280:Drivers/GD32F30x_standard_peripheral/Source/gd32f30x_adc.c ****     \param[in]  adc_periph: ADCx,x=0,1,2
 281:Drivers/GD32F30x_standard_peripheral/Source/gd32f30x_adc.c ****                 only one among these parameters can be selected
 282:Drivers/GD32F30x_standard_peripheral/Source/gd32f30x_adc.c ****     \param[in]  data_alignment: data alignment select
 283:Drivers/GD32F30x_standard_peripheral/Source/gd32f30x_adc.c ****                 only one parameter can be selected
 284:Drivers/GD32F30x_standard_peripheral/Source/gd32f30x_adc.c ****       \arg        ADC_DATAALIGN_RIGHT: LSB alignment
 285:Drivers/GD32F30x_standard_peripheral/Source/gd32f30x_adc.c ****       \arg        ADC_DATAALIGN_LEFT: MSB alignment
 286:Drivers/GD32F30x_standard_peripheral/Source/gd32f30x_adc.c ****     \param[out] none
 287:Drivers/GD32F30x_standard_peripheral/Source/gd32f30x_adc.c ****     \retval     none
 288:Drivers/GD32F30x_standard_peripheral/Source/gd32f30x_adc.c **** */
 289:Drivers/GD32F30x_standard_peripheral/Source/gd32f30x_adc.c **** void adc_data_alignment_config(uint32_t adc_periph , uint32_t data_alignment)
 290:Drivers/GD32F30x_standard_peripheral/Source/gd32f30x_adc.c **** {
 539              		.loc 1 290 1 is_stmt 1 view -0
 540              		.cfi_startproc
 541              		@ args = 0, pretend = 0, frame = 0
 542              		@ frame_needed = 0, uses_anonymous_args = 0
 543              		@ link register save eliminated.
 291:Drivers/GD32F30x_standard_peripheral/Source/gd32f30x_adc.c ****     if(ADC_DATAALIGN_RIGHT != data_alignment){
 544              		.loc 1 291 5 view .LVU119
 545              		.loc 1 291 7 is_stmt 0 view .LVU120
 546 0000 21B1     		cbz	r1, .L39
 292:Drivers/GD32F30x_standard_peripheral/Source/gd32f30x_adc.c ****         ADC_CTL1(adc_periph) |= ADC_CTL1_DAL;
 547              		.loc 1 292 9 is_stmt 1 view .LVU121
 548              		.loc 1 292 30 is_stmt 0 view .LVU122
 549 0002 8368     		ldr	r3, [r0, #8]
 550 0004 43F40063 		orr	r3, r3, #2048
 551 0008 8360     		str	r3, [r0, #8]
 552 000a 7047     		bx	lr
 553              	.L39:
 293:Drivers/GD32F30x_standard_peripheral/Source/gd32f30x_adc.c ****     }else{
 294:Drivers/GD32F30x_standard_peripheral/Source/gd32f30x_adc.c ****         ADC_CTL1(adc_periph) &= ~((uint32_t)ADC_CTL1_DAL);
 554              		.loc 1 294 9 is_stmt 1 view .LVU123
 555              		.loc 1 294 30 is_stmt 0 view .LVU124
 556 000c 8368     		ldr	r3, [r0, #8]
 557 000e 23F40063 		bic	r3, r3, #2048
 558 0012 8360     		str	r3, [r0, #8]
 295:Drivers/GD32F30x_standard_peripheral/Source/gd32f30x_adc.c ****     }
 296:Drivers/GD32F30x_standard_peripheral/Source/gd32f30x_adc.c **** }
 559              		.loc 1 296 1 view .LVU125
 560 0014 7047     		bx	lr
 561              		.cfi_endproc
 562              	.LFE128:
 564              		.section	.text.adc_channel_length_config,"ax",%progbits
 565              		.align	1
 566              		.global	adc_channel_length_config
 567              		.syntax unified
ARM GAS  /tmp/ccrXzzSE.s 			page 16


 568              		.thumb
 569              		.thumb_func
 571              	adc_channel_length_config:
 572              	.LVL26:
 573              	.LFB129:
 297:Drivers/GD32F30x_standard_peripheral/Source/gd32f30x_adc.c **** 
 298:Drivers/GD32F30x_standard_peripheral/Source/gd32f30x_adc.c **** /*!
 299:Drivers/GD32F30x_standard_peripheral/Source/gd32f30x_adc.c ****     \brief      configure the length of regular channel group or inserted channel group
 300:Drivers/GD32F30x_standard_peripheral/Source/gd32f30x_adc.c ****     \param[in]  adc_periph: ADCx,x=0,1,2
 301:Drivers/GD32F30x_standard_peripheral/Source/gd32f30x_adc.c ****                 only one among these parameters can be selected
 302:Drivers/GD32F30x_standard_peripheral/Source/gd32f30x_adc.c ****     \param[in]  adc_channel_group: select the channel group
 303:Drivers/GD32F30x_standard_peripheral/Source/gd32f30x_adc.c ****                 only one parameter can be selected
 304:Drivers/GD32F30x_standard_peripheral/Source/gd32f30x_adc.c ****       \arg        ADC_REGULAR_CHANNEL: regular channel group
 305:Drivers/GD32F30x_standard_peripheral/Source/gd32f30x_adc.c ****       \arg        ADC_INSERTED_CHANNEL: inserted channel group
 306:Drivers/GD32F30x_standard_peripheral/Source/gd32f30x_adc.c ****     \param[in]  length: the length of the channel
 307:Drivers/GD32F30x_standard_peripheral/Source/gd32f30x_adc.c ****                         regular channel 1-16
 308:Drivers/GD32F30x_standard_peripheral/Source/gd32f30x_adc.c ****                         inserted channel 1-4
 309:Drivers/GD32F30x_standard_peripheral/Source/gd32f30x_adc.c ****     \param[out] none
 310:Drivers/GD32F30x_standard_peripheral/Source/gd32f30x_adc.c ****     \retval     none
 311:Drivers/GD32F30x_standard_peripheral/Source/gd32f30x_adc.c **** */
 312:Drivers/GD32F30x_standard_peripheral/Source/gd32f30x_adc.c **** void adc_channel_length_config(uint32_t adc_periph, uint8_t adc_channel_group, uint32_t length)
 313:Drivers/GD32F30x_standard_peripheral/Source/gd32f30x_adc.c **** {
 574              		.loc 1 313 1 is_stmt 1 view -0
 575              		.cfi_startproc
 576              		@ args = 0, pretend = 0, frame = 0
 577              		@ frame_needed = 0, uses_anonymous_args = 0
 578              		@ link register save eliminated.
 314:Drivers/GD32F30x_standard_peripheral/Source/gd32f30x_adc.c ****     switch(adc_channel_group){
 579              		.loc 1 314 5 view .LVU127
 580 0000 0129     		cmp	r1, #1
 581 0002 02D0     		beq	.L42
 582 0004 0229     		cmp	r1, #2
 583 0006 0CD0     		beq	.L43
 584 0008 7047     		bx	lr
 585              	.L42:
 315:Drivers/GD32F30x_standard_peripheral/Source/gd32f30x_adc.c ****     case ADC_REGULAR_CHANNEL:
 316:Drivers/GD32F30x_standard_peripheral/Source/gd32f30x_adc.c ****         ADC_RSQ0(adc_periph) &= ~((uint32_t)ADC_RSQ0_RL);
 586              		.loc 1 316 9 view .LVU128
 587              		.loc 1 316 30 is_stmt 0 view .LVU129
 588 000a C36A     		ldr	r3, [r0, #44]
 589 000c 23F47003 		bic	r3, r3, #15728640
 590 0010 C362     		str	r3, [r0, #44]
 317:Drivers/GD32F30x_standard_peripheral/Source/gd32f30x_adc.c ****         ADC_RSQ0(adc_periph) |= RSQ0_RL((uint32_t)(length-1U));
 591              		.loc 1 317 9 is_stmt 1 view .LVU130
 592              		.loc 1 317 30 is_stmt 0 view .LVU131
 593 0012 C36A     		ldr	r3, [r0, #44]
 594              		.loc 1 317 33 view .LVU132
 595 0014 013A     		subs	r2, r2, #1
 596              	.LVL27:
 597              		.loc 1 317 33 view .LVU133
 598 0016 1205     		lsls	r2, r2, #20
 599              	.LVL28:
 600              		.loc 1 317 33 view .LVU134
 601 0018 02F47002 		and	r2, r2, #15728640
 602              		.loc 1 317 30 view .LVU135
 603 001c 1A43     		orrs	r2, r2, r3
 604 001e C262     		str	r2, [r0, #44]
ARM GAS  /tmp/ccrXzzSE.s 			page 17


 318:Drivers/GD32F30x_standard_peripheral/Source/gd32f30x_adc.c **** 
 319:Drivers/GD32F30x_standard_peripheral/Source/gd32f30x_adc.c ****         break;
 605              		.loc 1 319 9 is_stmt 1 view .LVU136
 606 0020 7047     		bx	lr
 607              	.LVL29:
 608              	.L43:
 320:Drivers/GD32F30x_standard_peripheral/Source/gd32f30x_adc.c ****     case ADC_INSERTED_CHANNEL:
 321:Drivers/GD32F30x_standard_peripheral/Source/gd32f30x_adc.c ****         ADC_ISQ(adc_periph) &= ~((uint32_t)ADC_ISQ_IL);
 609              		.loc 1 321 9 view .LVU137
 610              		.loc 1 321 29 is_stmt 0 view .LVU138
 611 0022 836B     		ldr	r3, [r0, #56]
 612 0024 23F44013 		bic	r3, r3, #3145728
 613 0028 8363     		str	r3, [r0, #56]
 322:Drivers/GD32F30x_standard_peripheral/Source/gd32f30x_adc.c ****         ADC_ISQ(adc_periph) |= ISQ_IL((uint32_t)(length-1U));
 614              		.loc 1 322 9 is_stmt 1 view .LVU139
 615              		.loc 1 322 29 is_stmt 0 view .LVU140
 616 002a 836B     		ldr	r3, [r0, #56]
 617              		.loc 1 322 32 view .LVU141
 618 002c 013A     		subs	r2, r2, #1
 619              	.LVL30:
 620              		.loc 1 322 32 view .LVU142
 621 002e 1205     		lsls	r2, r2, #20
 622              	.LVL31:
 623              		.loc 1 322 32 view .LVU143
 624 0030 02F44012 		and	r2, r2, #3145728
 625              		.loc 1 322 29 view .LVU144
 626 0034 1A43     		orrs	r2, r2, r3
 627 0036 8263     		str	r2, [r0, #56]
 323:Drivers/GD32F30x_standard_peripheral/Source/gd32f30x_adc.c ****     
 324:Drivers/GD32F30x_standard_peripheral/Source/gd32f30x_adc.c ****         break;
 628              		.loc 1 324 9 is_stmt 1 view .LVU145
 325:Drivers/GD32F30x_standard_peripheral/Source/gd32f30x_adc.c ****     default:
 326:Drivers/GD32F30x_standard_peripheral/Source/gd32f30x_adc.c ****         break;
 327:Drivers/GD32F30x_standard_peripheral/Source/gd32f30x_adc.c ****     }
 328:Drivers/GD32F30x_standard_peripheral/Source/gd32f30x_adc.c **** }
 629              		.loc 1 328 1 is_stmt 0 view .LVU146
 630 0038 7047     		bx	lr
 631              		.cfi_endproc
 632              	.LFE129:
 634              		.section	.text.adc_regular_channel_config,"ax",%progbits
 635              		.align	1
 636              		.global	adc_regular_channel_config
 637              		.syntax unified
 638              		.thumb
 639              		.thumb_func
 641              	adc_regular_channel_config:
 642              	.LVL32:
 643              	.LFB130:
 329:Drivers/GD32F30x_standard_peripheral/Source/gd32f30x_adc.c **** 
 330:Drivers/GD32F30x_standard_peripheral/Source/gd32f30x_adc.c **** /*!
 331:Drivers/GD32F30x_standard_peripheral/Source/gd32f30x_adc.c ****     \brief      configure ADC regular channel 
 332:Drivers/GD32F30x_standard_peripheral/Source/gd32f30x_adc.c ****     \param[in]  adc_periph: ADCx,x=0,1,2
 333:Drivers/GD32F30x_standard_peripheral/Source/gd32f30x_adc.c ****                 only one among these parameters can be selected
 334:Drivers/GD32F30x_standard_peripheral/Source/gd32f30x_adc.c ****     \param[in]  rank: the regular group sequence rank,this parameter must be between 0 to 15
 335:Drivers/GD32F30x_standard_peripheral/Source/gd32f30x_adc.c ****     \param[in]  adc_channel: the selected ADC channel
 336:Drivers/GD32F30x_standard_peripheral/Source/gd32f30x_adc.c ****                 only one among these parameters can be selected
 337:Drivers/GD32F30x_standard_peripheral/Source/gd32f30x_adc.c ****       \arg        ADC_CHANNEL_x(x=0..17)(x=16 and x=17 are only for ADC0): ADC Channelx 
ARM GAS  /tmp/ccrXzzSE.s 			page 18


 338:Drivers/GD32F30x_standard_peripheral/Source/gd32f30x_adc.c ****     \param[in]  sample_time: the sample time value
 339:Drivers/GD32F30x_standard_peripheral/Source/gd32f30x_adc.c ****                 only one parameter can be selected
 340:Drivers/GD32F30x_standard_peripheral/Source/gd32f30x_adc.c ****       \arg        ADC_SAMPLETIME_1POINT5: 1.5 cycles
 341:Drivers/GD32F30x_standard_peripheral/Source/gd32f30x_adc.c ****       \arg        ADC_SAMPLETIME_7POINT5: 7.5 cycles
 342:Drivers/GD32F30x_standard_peripheral/Source/gd32f30x_adc.c ****       \arg        ADC_SAMPLETIME_13POINT5: 13.5 cycles
 343:Drivers/GD32F30x_standard_peripheral/Source/gd32f30x_adc.c ****       \arg        ADC_SAMPLETIME_28POINT5: 28.5 cycles
 344:Drivers/GD32F30x_standard_peripheral/Source/gd32f30x_adc.c ****       \arg        ADC_SAMPLETIME_41POINT5: 41.5 cycles
 345:Drivers/GD32F30x_standard_peripheral/Source/gd32f30x_adc.c ****       \arg        ADC_SAMPLETIME_55POINT5: 55.5 cycles
 346:Drivers/GD32F30x_standard_peripheral/Source/gd32f30x_adc.c ****       \arg        ADC_SAMPLETIME_71POINT5: 71.5 cycles
 347:Drivers/GD32F30x_standard_peripheral/Source/gd32f30x_adc.c ****       \arg        ADC_SAMPLETIME_239POINT5: 239.5 cycles
 348:Drivers/GD32F30x_standard_peripheral/Source/gd32f30x_adc.c ****     \param[out] none
 349:Drivers/GD32F30x_standard_peripheral/Source/gd32f30x_adc.c ****     \retval     none
 350:Drivers/GD32F30x_standard_peripheral/Source/gd32f30x_adc.c **** */
 351:Drivers/GD32F30x_standard_peripheral/Source/gd32f30x_adc.c **** void adc_regular_channel_config(uint32_t adc_periph , uint8_t rank , uint8_t adc_channel , uint32_t
 352:Drivers/GD32F30x_standard_peripheral/Source/gd32f30x_adc.c **** {
 644              		.loc 1 352 1 is_stmt 1 view -0
 645              		.cfi_startproc
 646              		@ args = 0, pretend = 0, frame = 0
 647              		@ frame_needed = 0, uses_anonymous_args = 0
 648              		@ link register save eliminated.
 649              		.loc 1 352 1 is_stmt 0 view .LVU148
 650 0000 10B4     		push	{r4}
 651              	.LCFI1:
 652              		.cfi_def_cfa_offset 4
 653              		.cfi_offset 4, -4
 353:Drivers/GD32F30x_standard_peripheral/Source/gd32f30x_adc.c ****     uint32_t rsq,sampt;
 654              		.loc 1 353 5 is_stmt 1 view .LVU149
 354:Drivers/GD32F30x_standard_peripheral/Source/gd32f30x_adc.c ****     
 355:Drivers/GD32F30x_standard_peripheral/Source/gd32f30x_adc.c ****     /* ADC regular sequence config */
 356:Drivers/GD32F30x_standard_peripheral/Source/gd32f30x_adc.c ****     if(rank < 6U){
 655              		.loc 1 356 5 view .LVU150
 656              		.loc 1 356 7 is_stmt 0 view .LVU151
 657 0002 0529     		cmp	r1, #5
 658 0004 1ED8     		bhi	.L46
 357:Drivers/GD32F30x_standard_peripheral/Source/gd32f30x_adc.c ****         rsq = ADC_RSQ2(adc_periph);
 659              		.loc 1 357 9 is_stmt 1 view .LVU152
 660              		.loc 1 357 13 is_stmt 0 view .LVU153
 661 0006 446B     		ldr	r4, [r0, #52]
 662              	.LVL33:
 358:Drivers/GD32F30x_standard_peripheral/Source/gd32f30x_adc.c ****         rsq &=  ~((uint32_t)(ADC_RSQX_RSQN << (5U*rank)));
 663              		.loc 1 358 9 is_stmt 1 view .LVU154
 664              		.loc 1 358 50 is_stmt 0 view .LVU155
 665 0008 01EB8101 		add	r1, r1, r1, lsl #2
 666              	.LVL34:
 667              		.loc 1 358 19 view .LVU156
 668 000c 4FF01F0C 		mov	ip, #31
 669 0010 0CFA01FC 		lsl	ip, ip, r1
 670              		.loc 1 358 13 view .LVU157
 671 0014 24EA0C0C 		bic	ip, r4, ip
 672              	.LVL35:
 359:Drivers/GD32F30x_standard_peripheral/Source/gd32f30x_adc.c ****         rsq |= ((uint32_t)adc_channel << (5U*rank));
 673              		.loc 1 359 9 is_stmt 1 view .LVU158
 674              		.loc 1 359 39 is_stmt 0 view .LVU159
 675 0018 02FA01F1 		lsl	r1, r2, r1
 676              		.loc 1 359 13 view .LVU160
 677 001c 41EA0C01 		orr	r1, r1, ip
 678              	.LVL36:
ARM GAS  /tmp/ccrXzzSE.s 			page 19


 360:Drivers/GD32F30x_standard_peripheral/Source/gd32f30x_adc.c ****         ADC_RSQ2(adc_periph) = rsq;
 679              		.loc 1 360 9 is_stmt 1 view .LVU161
 680              		.loc 1 360 30 is_stmt 0 view .LVU162
 681 0020 4163     		str	r1, [r0, #52]
 682              	.LVL37:
 683              	.L47:
 361:Drivers/GD32F30x_standard_peripheral/Source/gd32f30x_adc.c ****     }else if(rank < 12U){
 362:Drivers/GD32F30x_standard_peripheral/Source/gd32f30x_adc.c ****         rsq = ADC_RSQ1(adc_periph);
 363:Drivers/GD32F30x_standard_peripheral/Source/gd32f30x_adc.c ****         rsq &= ~((uint32_t)(ADC_RSQX_RSQN << (5U*(rank-6U))));
 364:Drivers/GD32F30x_standard_peripheral/Source/gd32f30x_adc.c ****         rsq |= ((uint32_t)adc_channel << (5U*(rank-6U)));
 365:Drivers/GD32F30x_standard_peripheral/Source/gd32f30x_adc.c ****         ADC_RSQ1(adc_periph) = rsq;
 366:Drivers/GD32F30x_standard_peripheral/Source/gd32f30x_adc.c ****     }else if(rank < 16U){
 367:Drivers/GD32F30x_standard_peripheral/Source/gd32f30x_adc.c ****         rsq = ADC_RSQ0(adc_periph);
 368:Drivers/GD32F30x_standard_peripheral/Source/gd32f30x_adc.c ****         rsq &= ~((uint32_t)(ADC_RSQX_RSQN << (5U*(rank-12U))));
 369:Drivers/GD32F30x_standard_peripheral/Source/gd32f30x_adc.c ****         rsq |= ((uint32_t)adc_channel << (5U*(rank-12U)));
 370:Drivers/GD32F30x_standard_peripheral/Source/gd32f30x_adc.c ****         ADC_RSQ0(adc_periph) = rsq;
 371:Drivers/GD32F30x_standard_peripheral/Source/gd32f30x_adc.c ****     }else{
 372:Drivers/GD32F30x_standard_peripheral/Source/gd32f30x_adc.c ****     }
 684              		.loc 1 372 5 is_stmt 1 view .LVU163
 373:Drivers/GD32F30x_standard_peripheral/Source/gd32f30x_adc.c ****     
 374:Drivers/GD32F30x_standard_peripheral/Source/gd32f30x_adc.c ****     /* ADC sampling time config */
 375:Drivers/GD32F30x_standard_peripheral/Source/gd32f30x_adc.c ****     if(adc_channel < 10U){
 685              		.loc 1 375 5 view .LVU164
 686              		.loc 1 375 7 is_stmt 0 view .LVU165
 687 0022 092A     		cmp	r2, #9
 688 0024 30D8     		bhi	.L49
 376:Drivers/GD32F30x_standard_peripheral/Source/gd32f30x_adc.c ****         sampt = ADC_SAMPT1(adc_periph);
 689              		.loc 1 376 9 is_stmt 1 view .LVU166
 690              		.loc 1 376 15 is_stmt 0 view .LVU167
 691 0026 0169     		ldr	r1, [r0, #16]
 692              	.LVL38:
 377:Drivers/GD32F30x_standard_peripheral/Source/gd32f30x_adc.c ****         sampt &= ~((uint32_t)(ADC_SAMPTX_SPTN << (3U*adc_channel)));
 693              		.loc 1 377 9 is_stmt 1 view .LVU168
 694              		.loc 1 377 53 is_stmt 0 view .LVU169
 695 0028 02EB4202 		add	r2, r2, r2, lsl #1
 696              	.LVL39:
 697              		.loc 1 377 20 view .LVU170
 698 002c 4FF0070C 		mov	ip, #7
 699 0030 0CFA02FC 		lsl	ip, ip, r2
 700              		.loc 1 377 15 view .LVU171
 701 0034 21EA0C01 		bic	r1, r1, ip
 702              	.LVL40:
 378:Drivers/GD32F30x_standard_peripheral/Source/gd32f30x_adc.c ****         sampt |= (uint32_t)(sample_time << (3U*adc_channel));
 703              		.loc 1 378 9 is_stmt 1 view .LVU172
 704              		.loc 1 378 41 is_stmt 0 view .LVU173
 705 0038 03FA02F2 		lsl	r2, r3, r2
 706              		.loc 1 378 15 view .LVU174
 707 003c 0A43     		orrs	r2, r2, r1
 708              	.LVL41:
 379:Drivers/GD32F30x_standard_peripheral/Source/gd32f30x_adc.c ****         ADC_SAMPT1(adc_periph) = sampt;
 709              		.loc 1 379 9 is_stmt 1 view .LVU175
 710              		.loc 1 379 32 is_stmt 0 view .LVU176
 711 003e 0261     		str	r2, [r0, #16]
 712              	.LVL42:
 713              	.L45:
 380:Drivers/GD32F30x_standard_peripheral/Source/gd32f30x_adc.c ****     }else if(adc_channel < 18U){
 381:Drivers/GD32F30x_standard_peripheral/Source/gd32f30x_adc.c ****         sampt = ADC_SAMPT0(adc_periph);
ARM GAS  /tmp/ccrXzzSE.s 			page 20


 382:Drivers/GD32F30x_standard_peripheral/Source/gd32f30x_adc.c ****         sampt &= ~((uint32_t)(ADC_SAMPTX_SPTN << (3U*(adc_channel-10U))));
 383:Drivers/GD32F30x_standard_peripheral/Source/gd32f30x_adc.c ****         sampt |= (uint32_t)(sample_time << (3U*(adc_channel-10U)));
 384:Drivers/GD32F30x_standard_peripheral/Source/gd32f30x_adc.c ****         ADC_SAMPT0(adc_periph) = sampt;
 385:Drivers/GD32F30x_standard_peripheral/Source/gd32f30x_adc.c ****     }else{
 386:Drivers/GD32F30x_standard_peripheral/Source/gd32f30x_adc.c ****     }
 387:Drivers/GD32F30x_standard_peripheral/Source/gd32f30x_adc.c **** }
 714              		.loc 1 387 1 view .LVU177
 715 0040 10BC     		pop	{r4}
 716              	.LCFI2:
 717              		.cfi_remember_state
 718              		.cfi_restore 4
 719              		.cfi_def_cfa_offset 0
 720 0042 7047     		bx	lr
 721              	.LVL43:
 722              	.L46:
 723              	.LCFI3:
 724              		.cfi_restore_state
 361:Drivers/GD32F30x_standard_peripheral/Source/gd32f30x_adc.c ****         rsq = ADC_RSQ1(adc_periph);
 725              		.loc 1 361 11 is_stmt 1 view .LVU178
 361:Drivers/GD32F30x_standard_peripheral/Source/gd32f30x_adc.c ****         rsq = ADC_RSQ1(adc_periph);
 726              		.loc 1 361 13 is_stmt 0 view .LVU179
 727 0044 0B29     		cmp	r1, #11
 728 0046 0ED8     		bhi	.L48
 362:Drivers/GD32F30x_standard_peripheral/Source/gd32f30x_adc.c ****         rsq &= ~((uint32_t)(ADC_RSQX_RSQN << (5U*(rank-6U))));
 729              		.loc 1 362 9 is_stmt 1 view .LVU180
 362:Drivers/GD32F30x_standard_peripheral/Source/gd32f30x_adc.c ****         rsq &= ~((uint32_t)(ADC_RSQX_RSQN << (5U*(rank-6U))));
 730              		.loc 1 362 13 is_stmt 0 view .LVU181
 731 0048 046B     		ldr	r4, [r0, #48]
 732              	.LVL44:
 363:Drivers/GD32F30x_standard_peripheral/Source/gd32f30x_adc.c ****         rsq |= ((uint32_t)adc_channel << (5U*(rank-6U)));
 733              		.loc 1 363 9 is_stmt 1 view .LVU182
 363:Drivers/GD32F30x_standard_peripheral/Source/gd32f30x_adc.c ****         rsq |= ((uint32_t)adc_channel << (5U*(rank-6U)));
 734              		.loc 1 363 49 is_stmt 0 view .LVU183
 735 004a 01EB8101 		add	r1, r1, r1, lsl #2
 736              	.LVL45:
 363:Drivers/GD32F30x_standard_peripheral/Source/gd32f30x_adc.c ****         rsq |= ((uint32_t)adc_channel << (5U*(rank-6U)));
 737              		.loc 1 363 49 view .LVU184
 738 004e 1E39     		subs	r1, r1, #30
 363:Drivers/GD32F30x_standard_peripheral/Source/gd32f30x_adc.c ****         rsq |= ((uint32_t)adc_channel << (5U*(rank-6U)));
 739              		.loc 1 363 18 view .LVU185
 740 0050 4FF01F0C 		mov	ip, #31
 741 0054 0CFA01FC 		lsl	ip, ip, r1
 363:Drivers/GD32F30x_standard_peripheral/Source/gd32f30x_adc.c ****         rsq |= ((uint32_t)adc_channel << (5U*(rank-6U)));
 742              		.loc 1 363 13 view .LVU186
 743 0058 24EA0C04 		bic	r4, r4, ip
 744              	.LVL46:
 364:Drivers/GD32F30x_standard_peripheral/Source/gd32f30x_adc.c ****         ADC_RSQ1(adc_periph) = rsq;
 745              		.loc 1 364 9 is_stmt 1 view .LVU187
 364:Drivers/GD32F30x_standard_peripheral/Source/gd32f30x_adc.c ****         ADC_RSQ1(adc_periph) = rsq;
 746              		.loc 1 364 39 is_stmt 0 view .LVU188
 747 005c 02FA01F1 		lsl	r1, r2, r1
 364:Drivers/GD32F30x_standard_peripheral/Source/gd32f30x_adc.c ****         ADC_RSQ1(adc_periph) = rsq;
 748              		.loc 1 364 13 view .LVU189
 749 0060 2143     		orrs	r1, r1, r4
 750              	.LVL47:
 365:Drivers/GD32F30x_standard_peripheral/Source/gd32f30x_adc.c ****     }else if(rank < 16U){
 751              		.loc 1 365 9 is_stmt 1 view .LVU190
ARM GAS  /tmp/ccrXzzSE.s 			page 21


 365:Drivers/GD32F30x_standard_peripheral/Source/gd32f30x_adc.c ****     }else if(rank < 16U){
 752              		.loc 1 365 30 is_stmt 0 view .LVU191
 753 0062 0163     		str	r1, [r0, #48]
 754 0064 DDE7     		b	.L47
 755              	.LVL48:
 756              	.L48:
 366:Drivers/GD32F30x_standard_peripheral/Source/gd32f30x_adc.c ****         rsq = ADC_RSQ0(adc_periph);
 757              		.loc 1 366 11 is_stmt 1 view .LVU192
 366:Drivers/GD32F30x_standard_peripheral/Source/gd32f30x_adc.c ****         rsq = ADC_RSQ0(adc_periph);
 758              		.loc 1 366 13 is_stmt 0 view .LVU193
 759 0066 0F29     		cmp	r1, #15
 760 0068 DBD8     		bhi	.L47
 367:Drivers/GD32F30x_standard_peripheral/Source/gd32f30x_adc.c ****         rsq &= ~((uint32_t)(ADC_RSQX_RSQN << (5U*(rank-12U))));
 761              		.loc 1 367 9 is_stmt 1 view .LVU194
 367:Drivers/GD32F30x_standard_peripheral/Source/gd32f30x_adc.c ****         rsq &= ~((uint32_t)(ADC_RSQX_RSQN << (5U*(rank-12U))));
 762              		.loc 1 367 13 is_stmt 0 view .LVU195
 763 006a C46A     		ldr	r4, [r0, #44]
 764              	.LVL49:
 368:Drivers/GD32F30x_standard_peripheral/Source/gd32f30x_adc.c ****         rsq |= ((uint32_t)adc_channel << (5U*(rank-12U)));
 765              		.loc 1 368 9 is_stmt 1 view .LVU196
 368:Drivers/GD32F30x_standard_peripheral/Source/gd32f30x_adc.c ****         rsq |= ((uint32_t)adc_channel << (5U*(rank-12U)));
 766              		.loc 1 368 49 is_stmt 0 view .LVU197
 767 006c 01EB8101 		add	r1, r1, r1, lsl #2
 768              	.LVL50:
 368:Drivers/GD32F30x_standard_peripheral/Source/gd32f30x_adc.c ****         rsq |= ((uint32_t)adc_channel << (5U*(rank-12U)));
 769              		.loc 1 368 49 view .LVU198
 770 0070 3C39     		subs	r1, r1, #60
 368:Drivers/GD32F30x_standard_peripheral/Source/gd32f30x_adc.c ****         rsq |= ((uint32_t)adc_channel << (5U*(rank-12U)));
 771              		.loc 1 368 18 view .LVU199
 772 0072 4FF01F0C 		mov	ip, #31
 773 0076 0CFA01FC 		lsl	ip, ip, r1
 368:Drivers/GD32F30x_standard_peripheral/Source/gd32f30x_adc.c ****         rsq |= ((uint32_t)adc_channel << (5U*(rank-12U)));
 774              		.loc 1 368 13 view .LVU200
 775 007a 24EA0C04 		bic	r4, r4, ip
 776              	.LVL51:
 369:Drivers/GD32F30x_standard_peripheral/Source/gd32f30x_adc.c ****         ADC_RSQ0(adc_periph) = rsq;
 777              		.loc 1 369 9 is_stmt 1 view .LVU201
 369:Drivers/GD32F30x_standard_peripheral/Source/gd32f30x_adc.c ****         ADC_RSQ0(adc_periph) = rsq;
 778              		.loc 1 369 39 is_stmt 0 view .LVU202
 779 007e 02FA01F1 		lsl	r1, r2, r1
 369:Drivers/GD32F30x_standard_peripheral/Source/gd32f30x_adc.c ****         ADC_RSQ0(adc_periph) = rsq;
 780              		.loc 1 369 13 view .LVU203
 781 0082 2143     		orrs	r1, r1, r4
 782              	.LVL52:
 370:Drivers/GD32F30x_standard_peripheral/Source/gd32f30x_adc.c ****     }else{
 783              		.loc 1 370 9 is_stmt 1 view .LVU204
 370:Drivers/GD32F30x_standard_peripheral/Source/gd32f30x_adc.c ****     }else{
 784              		.loc 1 370 30 is_stmt 0 view .LVU205
 785 0084 C162     		str	r1, [r0, #44]
 786 0086 CCE7     		b	.L47
 787              	.LVL53:
 788              	.L49:
 380:Drivers/GD32F30x_standard_peripheral/Source/gd32f30x_adc.c ****         sampt = ADC_SAMPT0(adc_periph);
 789              		.loc 1 380 11 is_stmt 1 view .LVU206
 380:Drivers/GD32F30x_standard_peripheral/Source/gd32f30x_adc.c ****         sampt = ADC_SAMPT0(adc_periph);
 790              		.loc 1 380 13 is_stmt 0 view .LVU207
 791 0088 112A     		cmp	r2, #17
ARM GAS  /tmp/ccrXzzSE.s 			page 22


 792 008a D9D8     		bhi	.L45
 381:Drivers/GD32F30x_standard_peripheral/Source/gd32f30x_adc.c ****         sampt &= ~((uint32_t)(ADC_SAMPTX_SPTN << (3U*(adc_channel-10U))));
 793              		.loc 1 381 9 is_stmt 1 view .LVU208
 381:Drivers/GD32F30x_standard_peripheral/Source/gd32f30x_adc.c ****         sampt &= ~((uint32_t)(ADC_SAMPTX_SPTN << (3U*(adc_channel-10U))));
 794              		.loc 1 381 15 is_stmt 0 view .LVU209
 795 008c C168     		ldr	r1, [r0, #12]
 796              	.LVL54:
 382:Drivers/GD32F30x_standard_peripheral/Source/gd32f30x_adc.c ****         sampt |= (uint32_t)(sample_time << (3U*(adc_channel-10U)));
 797              		.loc 1 382 9 is_stmt 1 view .LVU210
 382:Drivers/GD32F30x_standard_peripheral/Source/gd32f30x_adc.c ****         sampt |= (uint32_t)(sample_time << (3U*(adc_channel-10U)));
 798              		.loc 1 382 53 is_stmt 0 view .LVU211
 799 008e 02EB4202 		add	r2, r2, r2, lsl #1
 800              	.LVL55:
 382:Drivers/GD32F30x_standard_peripheral/Source/gd32f30x_adc.c ****         sampt |= (uint32_t)(sample_time << (3U*(adc_channel-10U)));
 801              		.loc 1 382 53 view .LVU212
 802 0092 1E3A     		subs	r2, r2, #30
 382:Drivers/GD32F30x_standard_peripheral/Source/gd32f30x_adc.c ****         sampt |= (uint32_t)(sample_time << (3U*(adc_channel-10U)));
 803              		.loc 1 382 20 view .LVU213
 804 0094 0724     		movs	r4, #7
 805 0096 9440     		lsls	r4, r4, r2
 382:Drivers/GD32F30x_standard_peripheral/Source/gd32f30x_adc.c ****         sampt |= (uint32_t)(sample_time << (3U*(adc_channel-10U)));
 806              		.loc 1 382 15 view .LVU214
 807 0098 21EA0401 		bic	r1, r1, r4
 808              	.LVL56:
 383:Drivers/GD32F30x_standard_peripheral/Source/gd32f30x_adc.c ****         ADC_SAMPT0(adc_periph) = sampt;
 809              		.loc 1 383 9 is_stmt 1 view .LVU215
 383:Drivers/GD32F30x_standard_peripheral/Source/gd32f30x_adc.c ****         ADC_SAMPT0(adc_periph) = sampt;
 810              		.loc 1 383 41 is_stmt 0 view .LVU216
 811 009c 9340     		lsls	r3, r3, r2
 812              	.LVL57:
 383:Drivers/GD32F30x_standard_peripheral/Source/gd32f30x_adc.c ****         ADC_SAMPT0(adc_periph) = sampt;
 813              		.loc 1 383 15 view .LVU217
 814 009e 0B43     		orrs	r3, r3, r1
 815              	.LVL58:
 384:Drivers/GD32F30x_standard_peripheral/Source/gd32f30x_adc.c ****     }else{
 816              		.loc 1 384 9 is_stmt 1 view .LVU218
 384:Drivers/GD32F30x_standard_peripheral/Source/gd32f30x_adc.c ****     }else{
 817              		.loc 1 384 32 is_stmt 0 view .LVU219
 818 00a0 C360     		str	r3, [r0, #12]
 386:Drivers/GD32F30x_standard_peripheral/Source/gd32f30x_adc.c **** }
 819              		.loc 1 386 5 is_stmt 1 view .LVU220
 820              		.loc 1 387 1 is_stmt 0 view .LVU221
 821 00a2 CDE7     		b	.L45
 822              		.cfi_endproc
 823              	.LFE130:
 825              		.section	.text.adc_inserted_channel_config,"ax",%progbits
 826              		.align	1
 827              		.global	adc_inserted_channel_config
 828              		.syntax unified
 829              		.thumb
 830              		.thumb_func
 832              	adc_inserted_channel_config:
 833              	.LVL59:
 834              	.LFB131:
 388:Drivers/GD32F30x_standard_peripheral/Source/gd32f30x_adc.c **** 
 389:Drivers/GD32F30x_standard_peripheral/Source/gd32f30x_adc.c **** /*!
 390:Drivers/GD32F30x_standard_peripheral/Source/gd32f30x_adc.c ****     \brief      configure ADC inserted channel 
ARM GAS  /tmp/ccrXzzSE.s 			page 23


 391:Drivers/GD32F30x_standard_peripheral/Source/gd32f30x_adc.c ****     \param[in]  adc_periph: ADCx,x=0,1,2
 392:Drivers/GD32F30x_standard_peripheral/Source/gd32f30x_adc.c ****                 only one among these parameters can be selected
 393:Drivers/GD32F30x_standard_peripheral/Source/gd32f30x_adc.c ****     \param[in]  rank: the inserted group sequencer rank,this parameter must be between 0 to 3
 394:Drivers/GD32F30x_standard_peripheral/Source/gd32f30x_adc.c ****     \param[in]  adc_channel: the selected ADC channel
 395:Drivers/GD32F30x_standard_peripheral/Source/gd32f30x_adc.c ****                 only one among these parameters can be selected
 396:Drivers/GD32F30x_standard_peripheral/Source/gd32f30x_adc.c ****       \arg        ADC_CHANNEL_x(x=0..17)(x=16 and x=17 are only for ADC0): ADC Channelx
 397:Drivers/GD32F30x_standard_peripheral/Source/gd32f30x_adc.c ****     \param[in]  sample_time: The sample time value
 398:Drivers/GD32F30x_standard_peripheral/Source/gd32f30x_adc.c ****                 only one parameter can be selected
 399:Drivers/GD32F30x_standard_peripheral/Source/gd32f30x_adc.c ****       \arg        ADC_SAMPLETIME_1POINT5: 1.5 cycles
 400:Drivers/GD32F30x_standard_peripheral/Source/gd32f30x_adc.c ****       \arg        ADC_SAMPLETIME_7POINT5: 7.5 cycles
 401:Drivers/GD32F30x_standard_peripheral/Source/gd32f30x_adc.c ****       \arg        ADC_SAMPLETIME_13POINT5: 13.5 cycles
 402:Drivers/GD32F30x_standard_peripheral/Source/gd32f30x_adc.c ****       \arg        ADC_SAMPLETIME_28POINT5: 28.5 cycles
 403:Drivers/GD32F30x_standard_peripheral/Source/gd32f30x_adc.c ****       \arg        ADC_SAMPLETIME_41POINT5: 41.5 cycles
 404:Drivers/GD32F30x_standard_peripheral/Source/gd32f30x_adc.c ****       \arg        ADC_SAMPLETIME_55POINT5: 55.5 cycles
 405:Drivers/GD32F30x_standard_peripheral/Source/gd32f30x_adc.c ****       \arg        ADC_SAMPLETIME_71POINT5: 71.5 cycles
 406:Drivers/GD32F30x_standard_peripheral/Source/gd32f30x_adc.c ****       \arg        ADC_SAMPLETIME_239POINT5: 239.5 cycles
 407:Drivers/GD32F30x_standard_peripheral/Source/gd32f30x_adc.c ****     \param[out] none
 408:Drivers/GD32F30x_standard_peripheral/Source/gd32f30x_adc.c ****     \retval     none
 409:Drivers/GD32F30x_standard_peripheral/Source/gd32f30x_adc.c **** */
 410:Drivers/GD32F30x_standard_peripheral/Source/gd32f30x_adc.c **** void adc_inserted_channel_config(uint32_t adc_periph , uint8_t rank , uint8_t adc_channel , uint32_
 411:Drivers/GD32F30x_standard_peripheral/Source/gd32f30x_adc.c **** {
 835              		.loc 1 411 1 is_stmt 1 view -0
 836              		.cfi_startproc
 837              		@ args = 0, pretend = 0, frame = 0
 838              		@ frame_needed = 0, uses_anonymous_args = 0
 839              		@ link register save eliminated.
 840              		.loc 1 411 1 is_stmt 0 view .LVU223
 841 0000 10B4     		push	{r4}
 842              	.LCFI4:
 843              		.cfi_def_cfa_offset 4
 844              		.cfi_offset 4, -4
 412:Drivers/GD32F30x_standard_peripheral/Source/gd32f30x_adc.c ****     uint8_t inserted_length;
 845              		.loc 1 412 5 is_stmt 1 view .LVU224
 413:Drivers/GD32F30x_standard_peripheral/Source/gd32f30x_adc.c ****     uint32_t isq,sampt;
 846              		.loc 1 413 5 view .LVU225
 414:Drivers/GD32F30x_standard_peripheral/Source/gd32f30x_adc.c ****     
 415:Drivers/GD32F30x_standard_peripheral/Source/gd32f30x_adc.c ****     inserted_length = (uint8_t)GET_BITS(ADC_ISQ(adc_periph) , 20U , 21U);
 847              		.loc 1 415 5 view .LVU226
 848              		.loc 1 415 32 is_stmt 0 view .LVU227
 849 0002 846B     		ldr	r4, [r0, #56]
 850              		.loc 1 415 21 view .LVU228
 851 0004 C4F3015C 		ubfx	ip, r4, #20, #2
 852              	.LVL60:
 416:Drivers/GD32F30x_standard_peripheral/Source/gd32f30x_adc.c ****     
 417:Drivers/GD32F30x_standard_peripheral/Source/gd32f30x_adc.c ****     isq = ADC_ISQ(adc_periph);
 853              		.loc 1 417 5 is_stmt 1 view .LVU229
 854              		.loc 1 417 9 is_stmt 0 view .LVU230
 855 0008 846B     		ldr	r4, [r0, #56]
 856              	.LVL61:
 418:Drivers/GD32F30x_standard_peripheral/Source/gd32f30x_adc.c ****     isq &= ~((uint32_t)(ADC_ISQ_ISQN << (5U * ((3 + rank) - inserted_length))));
 857              		.loc 1 418 5 is_stmt 1 view .LVU231
 858              		.loc 1 418 51 is_stmt 0 view .LVU232
 859 000a 0331     		adds	r1, r1, #3
 860              	.LVL62:
 861              		.loc 1 418 59 view .LVU233
 862 000c A1EB0C01 		sub	r1, r1, ip
 863              		.loc 1 418 45 view .LVU234
ARM GAS  /tmp/ccrXzzSE.s 			page 24


 864 0010 01EB8101 		add	r1, r1, r1, lsl #2
 865              		.loc 1 418 14 view .LVU235
 866 0014 4FF01F0C 		mov	ip, #31
 867              	.LVL63:
 868              		.loc 1 418 14 view .LVU236
 869 0018 0CFA01FC 		lsl	ip, ip, r1
 870              		.loc 1 418 9 view .LVU237
 871 001c 24EA0C04 		bic	r4, r4, ip
 872              	.LVL64:
 419:Drivers/GD32F30x_standard_peripheral/Source/gd32f30x_adc.c ****     isq |= ((uint32_t)adc_channel << (5U * ((3 + rank) - inserted_length)));
 873              		.loc 1 419 5 is_stmt 1 view .LVU238
 874              		.loc 1 419 35 is_stmt 0 view .LVU239
 875 0020 02FA01F1 		lsl	r1, r2, r1
 876              		.loc 1 419 9 view .LVU240
 877 0024 2143     		orrs	r1, r1, r4
 878              	.LVL65:
 420:Drivers/GD32F30x_standard_peripheral/Source/gd32f30x_adc.c ****     ADC_ISQ(adc_periph) = isq;
 879              		.loc 1 420 5 is_stmt 1 view .LVU241
 880              		.loc 1 420 25 is_stmt 0 view .LVU242
 881 0026 8163     		str	r1, [r0, #56]
 421:Drivers/GD32F30x_standard_peripheral/Source/gd32f30x_adc.c **** 
 422:Drivers/GD32F30x_standard_peripheral/Source/gd32f30x_adc.c ****     /* ADC sampling time config */  
 423:Drivers/GD32F30x_standard_peripheral/Source/gd32f30x_adc.c ****     if(adc_channel < 10U){
 882              		.loc 1 423 5 is_stmt 1 view .LVU243
 883              		.loc 1 423 7 is_stmt 0 view .LVU244
 884 0028 092A     		cmp	r2, #9
 885 002a 0CD8     		bhi	.L53
 424:Drivers/GD32F30x_standard_peripheral/Source/gd32f30x_adc.c ****         sampt = ADC_SAMPT1(adc_periph);
 886              		.loc 1 424 9 is_stmt 1 view .LVU245
 887              		.loc 1 424 15 is_stmt 0 view .LVU246
 888 002c 0169     		ldr	r1, [r0, #16]
 889              	.LVL66:
 425:Drivers/GD32F30x_standard_peripheral/Source/gd32f30x_adc.c ****         sampt &= ~((uint32_t)(ADC_SAMPTX_SPTN << (3U*adc_channel)));
 890              		.loc 1 425 9 is_stmt 1 view .LVU247
 891              		.loc 1 425 53 is_stmt 0 view .LVU248
 892 002e 02EB4202 		add	r2, r2, r2, lsl #1
 893              	.LVL67:
 894              		.loc 1 425 20 view .LVU249
 895 0032 0724     		movs	r4, #7
 896 0034 9440     		lsls	r4, r4, r2
 897              		.loc 1 425 15 view .LVU250
 898 0036 21EA0401 		bic	r1, r1, r4
 899              	.LVL68:
 426:Drivers/GD32F30x_standard_peripheral/Source/gd32f30x_adc.c ****         sampt |= (uint32_t) sample_time << (3U*adc_channel);
 900              		.loc 1 426 9 is_stmt 1 view .LVU251
 901              		.loc 1 426 41 is_stmt 0 view .LVU252
 902 003a 03FA02F2 		lsl	r2, r3, r2
 903              		.loc 1 426 15 view .LVU253
 904 003e 0A43     		orrs	r2, r2, r1
 905              	.LVL69:
 427:Drivers/GD32F30x_standard_peripheral/Source/gd32f30x_adc.c ****         ADC_SAMPT1(adc_periph) = sampt;
 906              		.loc 1 427 9 is_stmt 1 view .LVU254
 907              		.loc 1 427 32 is_stmt 0 view .LVU255
 908 0040 0261     		str	r2, [r0, #16]
 909              	.LVL70:
 910              	.L52:
 428:Drivers/GD32F30x_standard_peripheral/Source/gd32f30x_adc.c ****     }else if(adc_channel < 18U){
ARM GAS  /tmp/ccrXzzSE.s 			page 25


 429:Drivers/GD32F30x_standard_peripheral/Source/gd32f30x_adc.c ****         sampt = ADC_SAMPT0(adc_periph);
 430:Drivers/GD32F30x_standard_peripheral/Source/gd32f30x_adc.c ****         sampt &= ~((uint32_t)(ADC_SAMPTX_SPTN << (3U*(adc_channel-10U))));
 431:Drivers/GD32F30x_standard_peripheral/Source/gd32f30x_adc.c ****         sampt |= ((uint32_t)sample_time << (3U*(adc_channel-10U)));
 432:Drivers/GD32F30x_standard_peripheral/Source/gd32f30x_adc.c ****         ADC_SAMPT0(adc_periph) = sampt;
 433:Drivers/GD32F30x_standard_peripheral/Source/gd32f30x_adc.c ****     }else{
 434:Drivers/GD32F30x_standard_peripheral/Source/gd32f30x_adc.c ****     }
 435:Drivers/GD32F30x_standard_peripheral/Source/gd32f30x_adc.c **** }
 911              		.loc 1 435 1 view .LVU256
 912 0042 10BC     		pop	{r4}
 913              	.LCFI5:
 914              		.cfi_remember_state
 915              		.cfi_restore 4
 916              		.cfi_def_cfa_offset 0
 917 0044 7047     		bx	lr
 918              	.LVL71:
 919              	.L53:
 920              	.LCFI6:
 921              		.cfi_restore_state
 428:Drivers/GD32F30x_standard_peripheral/Source/gd32f30x_adc.c ****     }else if(adc_channel < 18U){
 922              		.loc 1 428 11 is_stmt 1 view .LVU257
 428:Drivers/GD32F30x_standard_peripheral/Source/gd32f30x_adc.c ****     }else if(adc_channel < 18U){
 923              		.loc 1 428 13 is_stmt 0 view .LVU258
 924 0046 112A     		cmp	r2, #17
 925 0048 FBD8     		bhi	.L52
 429:Drivers/GD32F30x_standard_peripheral/Source/gd32f30x_adc.c ****         sampt &= ~((uint32_t)(ADC_SAMPTX_SPTN << (3U*(adc_channel-10U))));
 926              		.loc 1 429 9 is_stmt 1 view .LVU259
 429:Drivers/GD32F30x_standard_peripheral/Source/gd32f30x_adc.c ****         sampt &= ~((uint32_t)(ADC_SAMPTX_SPTN << (3U*(adc_channel-10U))));
 927              		.loc 1 429 15 is_stmt 0 view .LVU260
 928 004a C168     		ldr	r1, [r0, #12]
 929              	.LVL72:
 430:Drivers/GD32F30x_standard_peripheral/Source/gd32f30x_adc.c ****         sampt |= ((uint32_t)sample_time << (3U*(adc_channel-10U)));
 930              		.loc 1 430 9 is_stmt 1 view .LVU261
 430:Drivers/GD32F30x_standard_peripheral/Source/gd32f30x_adc.c ****         sampt |= ((uint32_t)sample_time << (3U*(adc_channel-10U)));
 931              		.loc 1 430 53 is_stmt 0 view .LVU262
 932 004c 02EB4202 		add	r2, r2, r2, lsl #1
 933              	.LVL73:
 430:Drivers/GD32F30x_standard_peripheral/Source/gd32f30x_adc.c ****         sampt |= ((uint32_t)sample_time << (3U*(adc_channel-10U)));
 934              		.loc 1 430 53 view .LVU263
 935 0050 1E3A     		subs	r2, r2, #30
 430:Drivers/GD32F30x_standard_peripheral/Source/gd32f30x_adc.c ****         sampt |= ((uint32_t)sample_time << (3U*(adc_channel-10U)));
 936              		.loc 1 430 20 view .LVU264
 937 0052 0724     		movs	r4, #7
 938 0054 9440     		lsls	r4, r4, r2
 430:Drivers/GD32F30x_standard_peripheral/Source/gd32f30x_adc.c ****         sampt |= ((uint32_t)sample_time << (3U*(adc_channel-10U)));
 939              		.loc 1 430 15 view .LVU265
 940 0056 21EA0401 		bic	r1, r1, r4
 941              	.LVL74:
 431:Drivers/GD32F30x_standard_peripheral/Source/gd32f30x_adc.c ****         ADC_SAMPT0(adc_periph) = sampt;
 942              		.loc 1 431 9 is_stmt 1 view .LVU266
 431:Drivers/GD32F30x_standard_peripheral/Source/gd32f30x_adc.c ****         ADC_SAMPT0(adc_periph) = sampt;
 943              		.loc 1 431 41 is_stmt 0 view .LVU267
 944 005a 9340     		lsls	r3, r3, r2
 945              	.LVL75:
 431:Drivers/GD32F30x_standard_peripheral/Source/gd32f30x_adc.c ****         ADC_SAMPT0(adc_periph) = sampt;
 946              		.loc 1 431 15 view .LVU268
 947 005c 0B43     		orrs	r3, r3, r1
 948              	.LVL76:
ARM GAS  /tmp/ccrXzzSE.s 			page 26


 432:Drivers/GD32F30x_standard_peripheral/Source/gd32f30x_adc.c ****     }else{
 949              		.loc 1 432 9 is_stmt 1 view .LVU269
 432:Drivers/GD32F30x_standard_peripheral/Source/gd32f30x_adc.c ****     }else{
 950              		.loc 1 432 32 is_stmt 0 view .LVU270
 951 005e C360     		str	r3, [r0, #12]
 952              	.LVL77:
 434:Drivers/GD32F30x_standard_peripheral/Source/gd32f30x_adc.c **** }
 953              		.loc 1 434 5 is_stmt 1 view .LVU271
 954              		.loc 1 435 1 is_stmt 0 view .LVU272
 955 0060 EFE7     		b	.L52
 956              		.cfi_endproc
 957              	.LFE131:
 959              		.section	.text.adc_inserted_channel_offset_config,"ax",%progbits
 960              		.align	1
 961              		.global	adc_inserted_channel_offset_config
 962              		.syntax unified
 963              		.thumb
 964              		.thumb_func
 966              	adc_inserted_channel_offset_config:
 967              	.LVL78:
 968              	.LFB132:
 436:Drivers/GD32F30x_standard_peripheral/Source/gd32f30x_adc.c **** 
 437:Drivers/GD32F30x_standard_peripheral/Source/gd32f30x_adc.c **** /*!
 438:Drivers/GD32F30x_standard_peripheral/Source/gd32f30x_adc.c ****     \brief      configure ADC inserted channel offset 
 439:Drivers/GD32F30x_standard_peripheral/Source/gd32f30x_adc.c ****     \param[in]  adc_periph: ADCx,x=0,1,2
 440:Drivers/GD32F30x_standard_peripheral/Source/gd32f30x_adc.c ****                 only one among these parameters can be selected
 441:Drivers/GD32F30x_standard_peripheral/Source/gd32f30x_adc.c ****     \param[in]  inserted_channel : insert channel select
 442:Drivers/GD32F30x_standard_peripheral/Source/gd32f30x_adc.c ****                 only one parameter can be selected
 443:Drivers/GD32F30x_standard_peripheral/Source/gd32f30x_adc.c ****       \arg        ADC_INSERTED_CHANNEL_0: inserted channel0
 444:Drivers/GD32F30x_standard_peripheral/Source/gd32f30x_adc.c ****       \arg        ADC_INSERTED_CHANNEL_1: inserted channel1
 445:Drivers/GD32F30x_standard_peripheral/Source/gd32f30x_adc.c ****       \arg        ADC_INSERTED_CHANNEL_2: inserted channel2
 446:Drivers/GD32F30x_standard_peripheral/Source/gd32f30x_adc.c ****       \arg        ADC_INSERTED_CHANNEL_3: inserted channel3
 447:Drivers/GD32F30x_standard_peripheral/Source/gd32f30x_adc.c ****     \param[in]  offset : the offset data
 448:Drivers/GD32F30x_standard_peripheral/Source/gd32f30x_adc.c ****     \param[out] none
 449:Drivers/GD32F30x_standard_peripheral/Source/gd32f30x_adc.c ****     \retval     none
 450:Drivers/GD32F30x_standard_peripheral/Source/gd32f30x_adc.c **** */
 451:Drivers/GD32F30x_standard_peripheral/Source/gd32f30x_adc.c **** void adc_inserted_channel_offset_config(uint32_t adc_periph , uint8_t inserted_channel , uint16_t o
 452:Drivers/GD32F30x_standard_peripheral/Source/gd32f30x_adc.c **** {
 969              		.loc 1 452 1 is_stmt 1 view -0
 970              		.cfi_startproc
 971              		@ args = 0, pretend = 0, frame = 0
 972              		@ frame_needed = 0, uses_anonymous_args = 0
 973              		@ link register save eliminated.
 453:Drivers/GD32F30x_standard_peripheral/Source/gd32f30x_adc.c ****     uint8_t inserted_length;
 974              		.loc 1 453 5 view .LVU274
 454:Drivers/GD32F30x_standard_peripheral/Source/gd32f30x_adc.c ****     uint32_t num = 0U;
 975              		.loc 1 454 5 view .LVU275
 455:Drivers/GD32F30x_standard_peripheral/Source/gd32f30x_adc.c **** 
 456:Drivers/GD32F30x_standard_peripheral/Source/gd32f30x_adc.c ****     inserted_length = (uint8_t)GET_BITS(ADC_ISQ(adc_periph) , 20U , 21U);
 976              		.loc 1 456 5 view .LVU276
 977              		.loc 1 456 32 is_stmt 0 view .LVU277
 978 0000 836B     		ldr	r3, [r0, #56]
 979              		.loc 1 456 21 view .LVU278
 980 0002 C3F30153 		ubfx	r3, r3, #20, #2
 981              	.LVL79:
 457:Drivers/GD32F30x_standard_peripheral/Source/gd32f30x_adc.c ****     num = 3U - (inserted_length - inserted_channel);
 982              		.loc 1 457 5 is_stmt 1 view .LVU279
ARM GAS  /tmp/ccrXzzSE.s 			page 27


 983              		.loc 1 457 33 is_stmt 0 view .LVU280
 984 0006 591A     		subs	r1, r3, r1
 985              	.LVL80:
 986              		.loc 1 457 9 view .LVU281
 987 0008 C1F10301 		rsb	r1, r1, #3
 988              	.LVL81:
 458:Drivers/GD32F30x_standard_peripheral/Source/gd32f30x_adc.c ****     
 459:Drivers/GD32F30x_standard_peripheral/Source/gd32f30x_adc.c ****     if(num <= 3U){
 989              		.loc 1 459 5 is_stmt 1 view .LVU282
 990              		.loc 1 459 7 is_stmt 0 view .LVU283
 991 000c 0329     		cmp	r1, #3
 992 000e 04D8     		bhi	.L56
 460:Drivers/GD32F30x_standard_peripheral/Source/gd32f30x_adc.c ****         /* calculate the offset of the register */
 461:Drivers/GD32F30x_standard_peripheral/Source/gd32f30x_adc.c ****         num = num * 4U;
 993              		.loc 1 461 9 is_stmt 1 view .LVU284
 994              	.LVL82:
 462:Drivers/GD32F30x_standard_peripheral/Source/gd32f30x_adc.c ****         /* config the offset of the selected channels */
 463:Drivers/GD32F30x_standard_peripheral/Source/gd32f30x_adc.c ****         REG32((adc_periph) + 0x14U + num) = IOFFX_IOFF((uint32_t)offset);
 995              		.loc 1 463 9 view .LVU285
 996 0010 00EB8100 		add	r0, r0, r1, lsl #2
 997              	.LVL83:
 998              		.loc 1 463 45 is_stmt 0 view .LVU286
 999 0014 C2F30B02 		ubfx	r2, r2, #0, #12
 1000              	.LVL84:
 1001              		.loc 1 463 43 view .LVU287
 1002 0018 4261     		str	r2, [r0, #20]
 1003              	.LVL85:
 1004              	.L56:
 464:Drivers/GD32F30x_standard_peripheral/Source/gd32f30x_adc.c ****     }  
 465:Drivers/GD32F30x_standard_peripheral/Source/gd32f30x_adc.c **** }
 1005              		.loc 1 465 1 view .LVU288
 1006 001a 7047     		bx	lr
 1007              		.cfi_endproc
 1008              	.LFE132:
 1010              		.section	.text.adc_external_trigger_config,"ax",%progbits
 1011              		.align	1
 1012              		.global	adc_external_trigger_config
 1013              		.syntax unified
 1014              		.thumb
 1015              		.thumb_func
 1017              	adc_external_trigger_config:
 1018              	.LVL86:
 1019              	.LFB133:
 466:Drivers/GD32F30x_standard_peripheral/Source/gd32f30x_adc.c **** 
 467:Drivers/GD32F30x_standard_peripheral/Source/gd32f30x_adc.c **** /*!
 468:Drivers/GD32F30x_standard_peripheral/Source/gd32f30x_adc.c ****     \brief      enable ADC external trigger 
 469:Drivers/GD32F30x_standard_peripheral/Source/gd32f30x_adc.c ****     \param[in]  adc_periph: ADCx,x=0,1,2
 470:Drivers/GD32F30x_standard_peripheral/Source/gd32f30x_adc.c ****                 only one among these parameters can be selected
 471:Drivers/GD32F30x_standard_peripheral/Source/gd32f30x_adc.c ****     \param[in]  adc_channel_group: select the channel group
 472:Drivers/GD32F30x_standard_peripheral/Source/gd32f30x_adc.c ****                 one or more parameters can be selected
 473:Drivers/GD32F30x_standard_peripheral/Source/gd32f30x_adc.c ****       \arg        ADC_REGULAR_CHANNEL: regular channel group
 474:Drivers/GD32F30x_standard_peripheral/Source/gd32f30x_adc.c ****       \arg        ADC_INSERTED_CHANNEL: inserted channel group
 475:Drivers/GD32F30x_standard_peripheral/Source/gd32f30x_adc.c ****     \param[in]  newvalue: ENABLE or DISABLE
 476:Drivers/GD32F30x_standard_peripheral/Source/gd32f30x_adc.c ****     \param[out] none
 477:Drivers/GD32F30x_standard_peripheral/Source/gd32f30x_adc.c ****     \retval     none
 478:Drivers/GD32F30x_standard_peripheral/Source/gd32f30x_adc.c **** */
 479:Drivers/GD32F30x_standard_peripheral/Source/gd32f30x_adc.c **** void adc_external_trigger_config(uint32_t adc_periph, uint8_t adc_channel_group, ControlStatus newv
ARM GAS  /tmp/ccrXzzSE.s 			page 28


 480:Drivers/GD32F30x_standard_peripheral/Source/gd32f30x_adc.c **** {
 1020              		.loc 1 480 1 is_stmt 1 view -0
 1021              		.cfi_startproc
 1022              		@ args = 0, pretend = 0, frame = 0
 1023              		@ frame_needed = 0, uses_anonymous_args = 0
 1024              		@ link register save eliminated.
 481:Drivers/GD32F30x_standard_peripheral/Source/gd32f30x_adc.c ****     if(newvalue){
 1025              		.loc 1 481 5 view .LVU290
 1026              		.loc 1 481 7 is_stmt 0 view .LVU291
 1027 0000 72B1     		cbz	r2, .L59
 482:Drivers/GD32F30x_standard_peripheral/Source/gd32f30x_adc.c ****         if(0U != (adc_channel_group & ADC_REGULAR_CHANNEL)){
 1028              		.loc 1 482 9 is_stmt 1 view .LVU292
 1029              		.loc 1 482 11 is_stmt 0 view .LVU293
 1030 0002 11F0010F 		tst	r1, #1
 1031 0006 03D0     		beq	.L60
 483:Drivers/GD32F30x_standard_peripheral/Source/gd32f30x_adc.c ****             ADC_CTL1(adc_periph) |= ADC_CTL1_ETERC;
 1032              		.loc 1 483 13 is_stmt 1 view .LVU294
 1033              		.loc 1 483 34 is_stmt 0 view .LVU295
 1034 0008 8368     		ldr	r3, [r0, #8]
 1035 000a 43F48013 		orr	r3, r3, #1048576
 1036 000e 8360     		str	r3, [r0, #8]
 1037              	.L60:
 484:Drivers/GD32F30x_standard_peripheral/Source/gd32f30x_adc.c ****         }
 485:Drivers/GD32F30x_standard_peripheral/Source/gd32f30x_adc.c ****         if(0U != (adc_channel_group & ADC_INSERTED_CHANNEL)){
 1038              		.loc 1 485 9 is_stmt 1 view .LVU296
 1039              		.loc 1 485 11 is_stmt 0 view .LVU297
 1040 0010 11F0020F 		tst	r1, #2
 1041 0014 12D0     		beq	.L58
 486:Drivers/GD32F30x_standard_peripheral/Source/gd32f30x_adc.c ****             ADC_CTL1(adc_periph) |= ADC_CTL1_ETEIC;
 1042              		.loc 1 486 13 is_stmt 1 view .LVU298
 1043              		.loc 1 486 34 is_stmt 0 view .LVU299
 1044 0016 8368     		ldr	r3, [r0, #8]
 1045 0018 43F40043 		orr	r3, r3, #32768
 1046 001c 8360     		str	r3, [r0, #8]
 1047 001e 7047     		bx	lr
 1048              	.L59:
 487:Drivers/GD32F30x_standard_peripheral/Source/gd32f30x_adc.c ****         }        
 488:Drivers/GD32F30x_standard_peripheral/Source/gd32f30x_adc.c ****     }else{
 489:Drivers/GD32F30x_standard_peripheral/Source/gd32f30x_adc.c ****         if(0U != (adc_channel_group & ADC_REGULAR_CHANNEL)){
 1049              		.loc 1 489 9 is_stmt 1 view .LVU300
 1050              		.loc 1 489 11 is_stmt 0 view .LVU301
 1051 0020 11F0010F 		tst	r1, #1
 1052 0024 03D0     		beq	.L62
 490:Drivers/GD32F30x_standard_peripheral/Source/gd32f30x_adc.c ****             ADC_CTL1(adc_periph) &= ~ADC_CTL1_ETERC;
 1053              		.loc 1 490 13 is_stmt 1 view .LVU302
 1054              		.loc 1 490 34 is_stmt 0 view .LVU303
 1055 0026 8368     		ldr	r3, [r0, #8]
 1056 0028 23F48013 		bic	r3, r3, #1048576
 1057 002c 8360     		str	r3, [r0, #8]
 1058              	.L62:
 491:Drivers/GD32F30x_standard_peripheral/Source/gd32f30x_adc.c ****         }
 492:Drivers/GD32F30x_standard_peripheral/Source/gd32f30x_adc.c ****         if(0U != (adc_channel_group & ADC_INSERTED_CHANNEL)){
 1059              		.loc 1 492 9 is_stmt 1 view .LVU304
 1060              		.loc 1 492 11 is_stmt 0 view .LVU305
 1061 002e 11F0020F 		tst	r1, #2
 1062 0032 03D0     		beq	.L58
 493:Drivers/GD32F30x_standard_peripheral/Source/gd32f30x_adc.c ****             ADC_CTL1(adc_periph) &= ~ADC_CTL1_ETEIC;
ARM GAS  /tmp/ccrXzzSE.s 			page 29


 1063              		.loc 1 493 13 is_stmt 1 view .LVU306
 1064              		.loc 1 493 34 is_stmt 0 view .LVU307
 1065 0034 8368     		ldr	r3, [r0, #8]
 1066 0036 23F40043 		bic	r3, r3, #32768
 1067 003a 8360     		str	r3, [r0, #8]
 1068              	.L58:
 494:Drivers/GD32F30x_standard_peripheral/Source/gd32f30x_adc.c ****         }      
 495:Drivers/GD32F30x_standard_peripheral/Source/gd32f30x_adc.c ****     }
 496:Drivers/GD32F30x_standard_peripheral/Source/gd32f30x_adc.c **** }
 1069              		.loc 1 496 1 view .LVU308
 1070 003c 7047     		bx	lr
 1071              		.cfi_endproc
 1072              	.LFE133:
 1074              		.section	.text.adc_external_trigger_source_config,"ax",%progbits
 1075              		.align	1
 1076              		.global	adc_external_trigger_source_config
 1077              		.syntax unified
 1078              		.thumb
 1079              		.thumb_func
 1081              	adc_external_trigger_source_config:
 1082              	.LVL87:
 1083              	.LFB134:
 497:Drivers/GD32F30x_standard_peripheral/Source/gd32f30x_adc.c **** 
 498:Drivers/GD32F30x_standard_peripheral/Source/gd32f30x_adc.c **** /*!
 499:Drivers/GD32F30x_standard_peripheral/Source/gd32f30x_adc.c ****     \brief      configure ADC external trigger source 
 500:Drivers/GD32F30x_standard_peripheral/Source/gd32f30x_adc.c ****     \param[in]  adc_periph: ADCx,x=0,1,2
 501:Drivers/GD32F30x_standard_peripheral/Source/gd32f30x_adc.c ****                 only one among these parameters can be selected
 502:Drivers/GD32F30x_standard_peripheral/Source/gd32f30x_adc.c ****     \param[in]  adc_channel_group: select the channel group
 503:Drivers/GD32F30x_standard_peripheral/Source/gd32f30x_adc.c ****                 only one parameter can be selected
 504:Drivers/GD32F30x_standard_peripheral/Source/gd32f30x_adc.c ****       \arg        ADC_REGULAR_CHANNEL: regular channel group
 505:Drivers/GD32F30x_standard_peripheral/Source/gd32f30x_adc.c ****       \arg        ADC_INSERTED_CHANNEL: inserted channel group
 506:Drivers/GD32F30x_standard_peripheral/Source/gd32f30x_adc.c ****     \param[in]  external_trigger_source: regular or inserted group trigger source
 507:Drivers/GD32F30x_standard_peripheral/Source/gd32f30x_adc.c ****                 only one parameter can be selected
 508:Drivers/GD32F30x_standard_peripheral/Source/gd32f30x_adc.c ****                 for regular channel:
 509:Drivers/GD32F30x_standard_peripheral/Source/gd32f30x_adc.c ****       \arg        ADC0_1_EXTTRIG_REGULAR_T0_CH0: timer 0 CC0 event select 
 510:Drivers/GD32F30x_standard_peripheral/Source/gd32f30x_adc.c ****       \arg        ADC0_1_EXTTRIG_REGULAR_T0_CH1: timer 0 CC1 event select 
 511:Drivers/GD32F30x_standard_peripheral/Source/gd32f30x_adc.c ****       \arg        ADC0_1_EXTTRIG_REGULAR_T0_CH2: timer 0 CC2 event select 
 512:Drivers/GD32F30x_standard_peripheral/Source/gd32f30x_adc.c ****       \arg        ADC0_1_EXTTRIG_REGULAR_T1_CH1: timer 1 CC1 event select 
 513:Drivers/GD32F30x_standard_peripheral/Source/gd32f30x_adc.c ****       \arg        ADC0_1_EXTTRIG_REGULAR_T2_TRGO: timer 2 TRGO event select 
 514:Drivers/GD32F30x_standard_peripheral/Source/gd32f30x_adc.c ****       \arg        ADC0_1_EXTTRIG_REGULAR_T3_CH3: timer 3 CC3 event select 
 515:Drivers/GD32F30x_standard_peripheral/Source/gd32f30x_adc.c ****       \arg        ADC0_1_EXTTRIG_REGULAR_T7_TRGO: timer 7 TRGO event select 
 516:Drivers/GD32F30x_standard_peripheral/Source/gd32f30x_adc.c ****       \arg        ADC0_1_EXTTRIG_REGULAR_EXTI_11 : external interrupt line 11 
 517:Drivers/GD32F30x_standard_peripheral/Source/gd32f30x_adc.c ****       \arg        ADC2_EXTTRIG_REGULAR_T2_CH0: timer 2 CC0 event select 
 518:Drivers/GD32F30x_standard_peripheral/Source/gd32f30x_adc.c ****       \arg        ADC2_EXTTRIG_REGULAR_T1_CH2: timer 1 CC2 event select 
 519:Drivers/GD32F30x_standard_peripheral/Source/gd32f30x_adc.c ****       \arg        ADC2_EXTTRIG_REGULAR_T0_CH2: timer 0 CC2 event select 
 520:Drivers/GD32F30x_standard_peripheral/Source/gd32f30x_adc.c ****       \arg        ADC2_EXTTRIG_REGULAR_T7_CH0: timer 7 CC0 event select 
 521:Drivers/GD32F30x_standard_peripheral/Source/gd32f30x_adc.c ****       \arg        ADC2_EXTTRIG_REGULAR_T7_TRGO: timer 7 TRGO event select 
 522:Drivers/GD32F30x_standard_peripheral/Source/gd32f30x_adc.c ****       \arg        ADC2_EXTTRIG_REGULAR_T4_CH0: timer 4 CC0 event select 
 523:Drivers/GD32F30x_standard_peripheral/Source/gd32f30x_adc.c ****       \arg        ADC2_EXTTRIG_REGULAR_T4_CH2: timer 4 CC2 event select
 524:Drivers/GD32F30x_standard_peripheral/Source/gd32f30x_adc.c ****       \arg        ADC0_1_2_EXTTRIG_REGULAR_NONE: software trigger      
 525:Drivers/GD32F30x_standard_peripheral/Source/gd32f30x_adc.c ****                 for inserted channel:
 526:Drivers/GD32F30x_standard_peripheral/Source/gd32f30x_adc.c ****       \arg        ADC0_1_EXTTRIG_INSERTED_T0_TRGO: timer 0 TRGO event select 
 527:Drivers/GD32F30x_standard_peripheral/Source/gd32f30x_adc.c ****       \arg        ADC0_1_EXTTRIG_INSERTED_T0_CH3: timer 0 CC3 event select 
 528:Drivers/GD32F30x_standard_peripheral/Source/gd32f30x_adc.c ****       \arg        ADC0_1_EXTTRIG_INSERTED_T1_TRGO: timer 1 TRGO event select 
 529:Drivers/GD32F30x_standard_peripheral/Source/gd32f30x_adc.c ****       \arg        ADC0_1_EXTTRIG_INSERTED_T1_CH0: timer 1 CC0 event select 
 530:Drivers/GD32F30x_standard_peripheral/Source/gd32f30x_adc.c ****       \arg        ADC0_1_EXTTRIG_INSERTED_T2_CH3: timer 2 CC3 event select 
 531:Drivers/GD32F30x_standard_peripheral/Source/gd32f30x_adc.c ****       \arg        ADC0_1_EXTTRIG_INSERTED_T3_TRGO: timer 3 TRGO event select 
ARM GAS  /tmp/ccrXzzSE.s 			page 30


 532:Drivers/GD32F30x_standard_peripheral/Source/gd32f30x_adc.c ****       \arg        ADC0_1_EXTTRIG_INSERTED_EXTI_15: external interrupt line 15 
 533:Drivers/GD32F30x_standard_peripheral/Source/gd32f30x_adc.c ****       \arg        ADC0_1_EXTTRIG_INSERTED_T7_CH3: timer 7 CC3 event select 
 534:Drivers/GD32F30x_standard_peripheral/Source/gd32f30x_adc.c ****       \arg        ADC2_EXTTRIG_INSERTED_T0_TRGO: timer 0 TRGO event select 
 535:Drivers/GD32F30x_standard_peripheral/Source/gd32f30x_adc.c ****       \arg        ADC2_EXTTRIG_INSERTED_T0_CH3: timer 0 CC3 event select 
 536:Drivers/GD32F30x_standard_peripheral/Source/gd32f30x_adc.c ****       \arg        ADC2_EXTTRIG_INSERTED_T3_CH2: timer 3 CC2 event select 
 537:Drivers/GD32F30x_standard_peripheral/Source/gd32f30x_adc.c ****       \arg        ADC2_EXTTRIG_INSERTED_T7_CH1: timer 7 CC1 event select 
 538:Drivers/GD32F30x_standard_peripheral/Source/gd32f30x_adc.c ****       \arg        ADC2_EXTTRIG_INSERTED_T7_CH3: timer 7 CC3 event select 
 539:Drivers/GD32F30x_standard_peripheral/Source/gd32f30x_adc.c ****       \arg        ADC2_EXTTRIG_INSERTED_T4_TRGO: timer 4 TRGO event select
 540:Drivers/GD32F30x_standard_peripheral/Source/gd32f30x_adc.c ****       \arg        ADC2_EXTTRIG_INSERTED_T4_CH3: timer 4 CC3 event select
 541:Drivers/GD32F30x_standard_peripheral/Source/gd32f30x_adc.c ****       \arg        ADC0_1_2_EXTTRIG_INSERTED_NONE: software trigger      
 542:Drivers/GD32F30x_standard_peripheral/Source/gd32f30x_adc.c ****     \param[out] none
 543:Drivers/GD32F30x_standard_peripheral/Source/gd32f30x_adc.c ****     \retval     none
 544:Drivers/GD32F30x_standard_peripheral/Source/gd32f30x_adc.c **** */
 545:Drivers/GD32F30x_standard_peripheral/Source/gd32f30x_adc.c **** void adc_external_trigger_source_config(uint32_t adc_periph, uint8_t adc_channel_group, uint32_t ex
 546:Drivers/GD32F30x_standard_peripheral/Source/gd32f30x_adc.c **** {   
 1084              		.loc 1 546 1 is_stmt 1 view -0
 1085              		.cfi_startproc
 1086              		@ args = 0, pretend = 0, frame = 0
 1087              		@ frame_needed = 0, uses_anonymous_args = 0
 1088              		@ link register save eliminated.
 547:Drivers/GD32F30x_standard_peripheral/Source/gd32f30x_adc.c ****     switch(adc_channel_group){
 1089              		.loc 1 547 5 view .LVU310
 1090 0000 0129     		cmp	r1, #1
 1091 0002 02D0     		beq	.L64
 1092 0004 0229     		cmp	r1, #2
 1093 0006 08D0     		beq	.L65
 1094 0008 7047     		bx	lr
 1095              	.L64:
 548:Drivers/GD32F30x_standard_peripheral/Source/gd32f30x_adc.c ****     case ADC_REGULAR_CHANNEL:
 549:Drivers/GD32F30x_standard_peripheral/Source/gd32f30x_adc.c ****         ADC_CTL1(adc_periph) &= ~((uint32_t)ADC_CTL1_ETSRC);
 1096              		.loc 1 549 9 view .LVU311
 1097              		.loc 1 549 30 is_stmt 0 view .LVU312
 1098 000a 8368     		ldr	r3, [r0, #8]
 1099 000c 23F46023 		bic	r3, r3, #917504
 1100 0010 8360     		str	r3, [r0, #8]
 550:Drivers/GD32F30x_standard_peripheral/Source/gd32f30x_adc.c ****         ADC_CTL1(adc_periph) |= (uint32_t)external_trigger_source;
 1101              		.loc 1 550 9 is_stmt 1 view .LVU313
 1102              		.loc 1 550 30 is_stmt 0 view .LVU314
 1103 0012 8368     		ldr	r3, [r0, #8]
 1104 0014 1A43     		orrs	r2, r2, r3
 1105              	.LVL88:
 1106              		.loc 1 550 30 view .LVU315
 1107 0016 8260     		str	r2, [r0, #8]
 551:Drivers/GD32F30x_standard_peripheral/Source/gd32f30x_adc.c ****         break;
 1108              		.loc 1 551 9 is_stmt 1 view .LVU316
 1109 0018 7047     		bx	lr
 1110              	.LVL89:
 1111              	.L65:
 552:Drivers/GD32F30x_standard_peripheral/Source/gd32f30x_adc.c ****     case ADC_INSERTED_CHANNEL:
 553:Drivers/GD32F30x_standard_peripheral/Source/gd32f30x_adc.c ****         ADC_CTL1(adc_periph) &= ~((uint32_t)ADC_CTL1_ETSIC);
 1112              		.loc 1 553 9 view .LVU317
 1113              		.loc 1 553 30 is_stmt 0 view .LVU318
 1114 001a 8368     		ldr	r3, [r0, #8]
 1115 001c 23F4E043 		bic	r3, r3, #28672
 1116 0020 8360     		str	r3, [r0, #8]
 554:Drivers/GD32F30x_standard_peripheral/Source/gd32f30x_adc.c ****         ADC_CTL1(adc_periph) |= (uint32_t)external_trigger_source;
 1117              		.loc 1 554 9 is_stmt 1 view .LVU319
ARM GAS  /tmp/ccrXzzSE.s 			page 31


 1118              		.loc 1 554 30 is_stmt 0 view .LVU320
 1119 0022 8368     		ldr	r3, [r0, #8]
 1120 0024 1A43     		orrs	r2, r2, r3
 1121              	.LVL90:
 1122              		.loc 1 554 30 view .LVU321
 1123 0026 8260     		str	r2, [r0, #8]
 555:Drivers/GD32F30x_standard_peripheral/Source/gd32f30x_adc.c ****         break;
 1124              		.loc 1 555 9 is_stmt 1 view .LVU322
 556:Drivers/GD32F30x_standard_peripheral/Source/gd32f30x_adc.c ****     default:
 557:Drivers/GD32F30x_standard_peripheral/Source/gd32f30x_adc.c ****         break;
 558:Drivers/GD32F30x_standard_peripheral/Source/gd32f30x_adc.c ****     }
 559:Drivers/GD32F30x_standard_peripheral/Source/gd32f30x_adc.c **** }
 1125              		.loc 1 559 1 is_stmt 0 view .LVU323
 1126 0028 7047     		bx	lr
 1127              		.cfi_endproc
 1128              	.LFE134:
 1130              		.section	.text.adc_software_trigger_enable,"ax",%progbits
 1131              		.align	1
 1132              		.global	adc_software_trigger_enable
 1133              		.syntax unified
 1134              		.thumb
 1135              		.thumb_func
 1137              	adc_software_trigger_enable:
 1138              	.LVL91:
 1139              	.LFB135:
 560:Drivers/GD32F30x_standard_peripheral/Source/gd32f30x_adc.c **** 
 561:Drivers/GD32F30x_standard_peripheral/Source/gd32f30x_adc.c **** /*!
 562:Drivers/GD32F30x_standard_peripheral/Source/gd32f30x_adc.c ****     \brief      enable ADC software trigger 
 563:Drivers/GD32F30x_standard_peripheral/Source/gd32f30x_adc.c ****     \param[in]  adc_periph: ADCx,x=0,1,2
 564:Drivers/GD32F30x_standard_peripheral/Source/gd32f30x_adc.c ****                 only one among these parameters can be selected
 565:Drivers/GD32F30x_standard_peripheral/Source/gd32f30x_adc.c ****     \param[in]  adc_channel_group: select the channel group
 566:Drivers/GD32F30x_standard_peripheral/Source/gd32f30x_adc.c ****                 one or more parameters can be selected
 567:Drivers/GD32F30x_standard_peripheral/Source/gd32f30x_adc.c ****       \arg        ADC_REGULAR_CHANNEL: regular channel group
 568:Drivers/GD32F30x_standard_peripheral/Source/gd32f30x_adc.c ****       \arg        ADC_INSERTED_CHANNEL: inserted channel group
 569:Drivers/GD32F30x_standard_peripheral/Source/gd32f30x_adc.c ****     \param[out] none
 570:Drivers/GD32F30x_standard_peripheral/Source/gd32f30x_adc.c ****     \retval     none
 571:Drivers/GD32F30x_standard_peripheral/Source/gd32f30x_adc.c **** */
 572:Drivers/GD32F30x_standard_peripheral/Source/gd32f30x_adc.c **** void adc_software_trigger_enable(uint32_t adc_periph , uint8_t adc_channel_group)
 573:Drivers/GD32F30x_standard_peripheral/Source/gd32f30x_adc.c **** {
 1140              		.loc 1 573 1 is_stmt 1 view -0
 1141              		.cfi_startproc
 1142              		@ args = 0, pretend = 0, frame = 0
 1143              		@ frame_needed = 0, uses_anonymous_args = 0
 1144              		@ link register save eliminated.
 574:Drivers/GD32F30x_standard_peripheral/Source/gd32f30x_adc.c ****     if(0U != (adc_channel_group & ADC_REGULAR_CHANNEL)){
 1145              		.loc 1 574 5 view .LVU325
 1146              		.loc 1 574 7 is_stmt 0 view .LVU326
 1147 0000 11F0010F 		tst	r1, #1
 1148 0004 03D0     		beq	.L68
 575:Drivers/GD32F30x_standard_peripheral/Source/gd32f30x_adc.c ****         ADC_CTL1(adc_periph) |= ADC_CTL1_SWRCST;
 1149              		.loc 1 575 9 is_stmt 1 view .LVU327
 1150              		.loc 1 575 30 is_stmt 0 view .LVU328
 1151 0006 8368     		ldr	r3, [r0, #8]
 1152 0008 43F48003 		orr	r3, r3, #4194304
 1153 000c 8360     		str	r3, [r0, #8]
 1154              	.L68:
 576:Drivers/GD32F30x_standard_peripheral/Source/gd32f30x_adc.c ****     }
ARM GAS  /tmp/ccrXzzSE.s 			page 32


 577:Drivers/GD32F30x_standard_peripheral/Source/gd32f30x_adc.c ****     if(0U != (adc_channel_group & ADC_INSERTED_CHANNEL)){
 1155              		.loc 1 577 5 is_stmt 1 view .LVU329
 1156              		.loc 1 577 7 is_stmt 0 view .LVU330
 1157 000e 11F0020F 		tst	r1, #2
 1158 0012 03D0     		beq	.L67
 578:Drivers/GD32F30x_standard_peripheral/Source/gd32f30x_adc.c ****         ADC_CTL1(adc_periph) |= ADC_CTL1_SWICST;
 1159              		.loc 1 578 9 is_stmt 1 view .LVU331
 1160              		.loc 1 578 30 is_stmt 0 view .LVU332
 1161 0014 8368     		ldr	r3, [r0, #8]
 1162 0016 43F40013 		orr	r3, r3, #2097152
 1163 001a 8360     		str	r3, [r0, #8]
 1164              	.L67:
 579:Drivers/GD32F30x_standard_peripheral/Source/gd32f30x_adc.c ****     }
 580:Drivers/GD32F30x_standard_peripheral/Source/gd32f30x_adc.c **** }
 1165              		.loc 1 580 1 view .LVU333
 1166 001c 7047     		bx	lr
 1167              		.cfi_endproc
 1168              	.LFE135:
 1170              		.section	.text.adc_regular_data_read,"ax",%progbits
 1171              		.align	1
 1172              		.global	adc_regular_data_read
 1173              		.syntax unified
 1174              		.thumb
 1175              		.thumb_func
 1177              	adc_regular_data_read:
 1178              	.LVL92:
 1179              	.LFB136:
 581:Drivers/GD32F30x_standard_peripheral/Source/gd32f30x_adc.c **** 
 582:Drivers/GD32F30x_standard_peripheral/Source/gd32f30x_adc.c **** /*!
 583:Drivers/GD32F30x_standard_peripheral/Source/gd32f30x_adc.c ****     \brief      read ADC regular group data register 
 584:Drivers/GD32F30x_standard_peripheral/Source/gd32f30x_adc.c ****     \param[in]  adc_periph: ADCx,x=0,1,2
 585:Drivers/GD32F30x_standard_peripheral/Source/gd32f30x_adc.c ****                 only one among these parameters can be selected
 586:Drivers/GD32F30x_standard_peripheral/Source/gd32f30x_adc.c ****     \param[in]  none
 587:Drivers/GD32F30x_standard_peripheral/Source/gd32f30x_adc.c ****     \param[out] none
 588:Drivers/GD32F30x_standard_peripheral/Source/gd32f30x_adc.c ****     \retval     the conversion value
 589:Drivers/GD32F30x_standard_peripheral/Source/gd32f30x_adc.c **** */
 590:Drivers/GD32F30x_standard_peripheral/Source/gd32f30x_adc.c **** uint16_t adc_regular_data_read(uint32_t adc_periph)
 591:Drivers/GD32F30x_standard_peripheral/Source/gd32f30x_adc.c **** {
 1180              		.loc 1 591 1 is_stmt 1 view -0
 1181              		.cfi_startproc
 1182              		@ args = 0, pretend = 0, frame = 0
 1183              		@ frame_needed = 0, uses_anonymous_args = 0
 1184              		@ link register save eliminated.
 592:Drivers/GD32F30x_standard_peripheral/Source/gd32f30x_adc.c ****     return (uint16_t)(ADC_RDATA(adc_periph));
 1185              		.loc 1 592 5 view .LVU335
 1186              		.loc 1 592 23 is_stmt 0 view .LVU336
 1187 0000 C06C     		ldr	r0, [r0, #76]
 1188              	.LVL93:
 593:Drivers/GD32F30x_standard_peripheral/Source/gd32f30x_adc.c **** }
 1189              		.loc 1 593 1 view .LVU337
 1190 0002 80B2     		uxth	r0, r0
 1191 0004 7047     		bx	lr
 1192              		.cfi_endproc
 1193              	.LFE136:
 1195              		.section	.text.adc_inserted_data_read,"ax",%progbits
 1196              		.align	1
 1197              		.global	adc_inserted_data_read
ARM GAS  /tmp/ccrXzzSE.s 			page 33


 1198              		.syntax unified
 1199              		.thumb
 1200              		.thumb_func
 1202              	adc_inserted_data_read:
 1203              	.LVL94:
 1204              	.LFB137:
 594:Drivers/GD32F30x_standard_peripheral/Source/gd32f30x_adc.c **** 
 595:Drivers/GD32F30x_standard_peripheral/Source/gd32f30x_adc.c **** /*!
 596:Drivers/GD32F30x_standard_peripheral/Source/gd32f30x_adc.c ****     \brief      read ADC inserted group data register 
 597:Drivers/GD32F30x_standard_peripheral/Source/gd32f30x_adc.c ****     \param[in]  adc_periph: ADCx,x=0,1,2
 598:Drivers/GD32F30x_standard_peripheral/Source/gd32f30x_adc.c ****                 only one among these parameters can be selected
 599:Drivers/GD32F30x_standard_peripheral/Source/gd32f30x_adc.c ****     \param[in]  inserted_channel : insert channel select
 600:Drivers/GD32F30x_standard_peripheral/Source/gd32f30x_adc.c ****                 only one parameter can be selected
 601:Drivers/GD32F30x_standard_peripheral/Source/gd32f30x_adc.c ****       \arg        ADC_INSERTED_CHANNEL_0: inserted Channel0
 602:Drivers/GD32F30x_standard_peripheral/Source/gd32f30x_adc.c ****       \arg        ADC_INSERTED_CHANNEL_1: inserted channel1
 603:Drivers/GD32F30x_standard_peripheral/Source/gd32f30x_adc.c ****       \arg        ADC_INSERTED_CHANNEL_2: inserted Channel2
 604:Drivers/GD32F30x_standard_peripheral/Source/gd32f30x_adc.c ****       \arg        ADC_INSERTED_CHANNEL_3: inserted Channel3
 605:Drivers/GD32F30x_standard_peripheral/Source/gd32f30x_adc.c ****     \param[out] none
 606:Drivers/GD32F30x_standard_peripheral/Source/gd32f30x_adc.c ****     \retval     the conversion value
 607:Drivers/GD32F30x_standard_peripheral/Source/gd32f30x_adc.c **** */
 608:Drivers/GD32F30x_standard_peripheral/Source/gd32f30x_adc.c **** uint16_t adc_inserted_data_read(uint32_t adc_periph , uint8_t inserted_channel)
 609:Drivers/GD32F30x_standard_peripheral/Source/gd32f30x_adc.c **** {
 1205              		.loc 1 609 1 is_stmt 1 view -0
 1206              		.cfi_startproc
 1207              		@ args = 0, pretend = 0, frame = 0
 1208              		@ frame_needed = 0, uses_anonymous_args = 0
 1209              		@ link register save eliminated.
 610:Drivers/GD32F30x_standard_peripheral/Source/gd32f30x_adc.c ****     uint32_t idata;
 1210              		.loc 1 610 5 view .LVU339
 611:Drivers/GD32F30x_standard_peripheral/Source/gd32f30x_adc.c ****     /* read the data of the selected channel */
 612:Drivers/GD32F30x_standard_peripheral/Source/gd32f30x_adc.c ****     switch(inserted_channel){
 1211              		.loc 1 612 5 view .LVU340
 1212 0000 0329     		cmp	r1, #3
 1213 0002 0CD8     		bhi	.L78
 1214 0004 DFE801F0 		tbb	[pc, r1]
 1215              	.L74:
 1216 0008 02       		.byte	(.L77-.L74)/2
 1217 0009 05       		.byte	(.L76-.L74)/2
 1218 000a 07       		.byte	(.L75-.L74)/2
 1219 000b 09       		.byte	(.L73-.L74)/2
 1220              		.p2align 1
 1221              	.L77:
 613:Drivers/GD32F30x_standard_peripheral/Source/gd32f30x_adc.c ****     case ADC_INSERTED_CHANNEL_0:
 614:Drivers/GD32F30x_standard_peripheral/Source/gd32f30x_adc.c ****         idata = ADC_IDATA0(adc_periph);
 1222              		.loc 1 614 9 view .LVU341
 1223              		.loc 1 614 15 is_stmt 0 view .LVU342
 1224 000c C06B     		ldr	r0, [r0, #60]
 1225              	.LVL95:
 615:Drivers/GD32F30x_standard_peripheral/Source/gd32f30x_adc.c ****         break;
 1226              		.loc 1 615 9 is_stmt 1 view .LVU343
 1227              	.L72:
 616:Drivers/GD32F30x_standard_peripheral/Source/gd32f30x_adc.c ****     case ADC_INSERTED_CHANNEL_1:
 617:Drivers/GD32F30x_standard_peripheral/Source/gd32f30x_adc.c ****         idata = ADC_IDATA1(adc_periph);
 618:Drivers/GD32F30x_standard_peripheral/Source/gd32f30x_adc.c ****         break;
 619:Drivers/GD32F30x_standard_peripheral/Source/gd32f30x_adc.c ****     case ADC_INSERTED_CHANNEL_2:
 620:Drivers/GD32F30x_standard_peripheral/Source/gd32f30x_adc.c ****         idata = ADC_IDATA2(adc_periph);
 621:Drivers/GD32F30x_standard_peripheral/Source/gd32f30x_adc.c ****         break;
ARM GAS  /tmp/ccrXzzSE.s 			page 34


 622:Drivers/GD32F30x_standard_peripheral/Source/gd32f30x_adc.c ****     case ADC_INSERTED_CHANNEL_3:
 623:Drivers/GD32F30x_standard_peripheral/Source/gd32f30x_adc.c ****         idata = ADC_IDATA3(adc_periph);
 624:Drivers/GD32F30x_standard_peripheral/Source/gd32f30x_adc.c ****         break;
 625:Drivers/GD32F30x_standard_peripheral/Source/gd32f30x_adc.c ****     default:
 626:Drivers/GD32F30x_standard_peripheral/Source/gd32f30x_adc.c ****         idata = 0U;
 627:Drivers/GD32F30x_standard_peripheral/Source/gd32f30x_adc.c ****         break;
 628:Drivers/GD32F30x_standard_peripheral/Source/gd32f30x_adc.c ****     }
 629:Drivers/GD32F30x_standard_peripheral/Source/gd32f30x_adc.c ****     return (uint16_t)idata;
 1228              		.loc 1 629 5 view .LVU344
 630:Drivers/GD32F30x_standard_peripheral/Source/gd32f30x_adc.c **** }
 1229              		.loc 1 630 1 is_stmt 0 view .LVU345
 1230 000e 80B2     		uxth	r0, r0
 1231              	.LVL96:
 1232              		.loc 1 630 1 view .LVU346
 1233 0010 7047     		bx	lr
 1234              	.LVL97:
 1235              	.L76:
 617:Drivers/GD32F30x_standard_peripheral/Source/gd32f30x_adc.c ****         break;
 1236              		.loc 1 617 9 is_stmt 1 view .LVU347
 617:Drivers/GD32F30x_standard_peripheral/Source/gd32f30x_adc.c ****         break;
 1237              		.loc 1 617 15 is_stmt 0 view .LVU348
 1238 0012 006C     		ldr	r0, [r0, #64]
 1239              	.LVL98:
 618:Drivers/GD32F30x_standard_peripheral/Source/gd32f30x_adc.c ****     case ADC_INSERTED_CHANNEL_2:
 1240              		.loc 1 618 9 is_stmt 1 view .LVU349
 1241 0014 FBE7     		b	.L72
 1242              	.LVL99:
 1243              	.L75:
 620:Drivers/GD32F30x_standard_peripheral/Source/gd32f30x_adc.c ****         break;
 1244              		.loc 1 620 9 view .LVU350
 620:Drivers/GD32F30x_standard_peripheral/Source/gd32f30x_adc.c ****         break;
 1245              		.loc 1 620 15 is_stmt 0 view .LVU351
 1246 0016 406C     		ldr	r0, [r0, #68]
 1247              	.LVL100:
 621:Drivers/GD32F30x_standard_peripheral/Source/gd32f30x_adc.c ****     case ADC_INSERTED_CHANNEL_3:
 1248              		.loc 1 621 9 is_stmt 1 view .LVU352
 1249 0018 F9E7     		b	.L72
 1250              	.LVL101:
 1251              	.L73:
 623:Drivers/GD32F30x_standard_peripheral/Source/gd32f30x_adc.c ****         break;
 1252              		.loc 1 623 9 view .LVU353
 623:Drivers/GD32F30x_standard_peripheral/Source/gd32f30x_adc.c ****         break;
 1253              		.loc 1 623 15 is_stmt 0 view .LVU354
 1254 001a 806C     		ldr	r0, [r0, #72]
 1255              	.LVL102:
 624:Drivers/GD32F30x_standard_peripheral/Source/gd32f30x_adc.c ****     default:
 1256              		.loc 1 624 9 is_stmt 1 view .LVU355
 1257 001c F7E7     		b	.L72
 1258              	.LVL103:
 1259              	.L78:
 612:Drivers/GD32F30x_standard_peripheral/Source/gd32f30x_adc.c ****     case ADC_INSERTED_CHANNEL_0:
 1260              		.loc 1 612 5 is_stmt 0 view .LVU356
 1261 001e 0020     		movs	r0, #0
 1262              	.LVL104:
 612:Drivers/GD32F30x_standard_peripheral/Source/gd32f30x_adc.c ****     case ADC_INSERTED_CHANNEL_0:
 1263              		.loc 1 612 5 view .LVU357
 1264 0020 F5E7     		b	.L72
ARM GAS  /tmp/ccrXzzSE.s 			page 35


 1265              		.cfi_endproc
 1266              	.LFE137:
 1268              		.section	.text.adc_sync_mode_convert_value_read,"ax",%progbits
 1269              		.align	1
 1270              		.global	adc_sync_mode_convert_value_read
 1271              		.syntax unified
 1272              		.thumb
 1273              		.thumb_func
 1275              	adc_sync_mode_convert_value_read:
 1276              	.LFB138:
 631:Drivers/GD32F30x_standard_peripheral/Source/gd32f30x_adc.c **** 
 632:Drivers/GD32F30x_standard_peripheral/Source/gd32f30x_adc.c **** /*!
 633:Drivers/GD32F30x_standard_peripheral/Source/gd32f30x_adc.c ****     \brief      read the last ADC0 and ADC1 conversion result data in sync mode
 634:Drivers/GD32F30x_standard_peripheral/Source/gd32f30x_adc.c ****     \param[in]  none
 635:Drivers/GD32F30x_standard_peripheral/Source/gd32f30x_adc.c ****     \param[out] none
 636:Drivers/GD32F30x_standard_peripheral/Source/gd32f30x_adc.c ****     \retval     the conversion value
 637:Drivers/GD32F30x_standard_peripheral/Source/gd32f30x_adc.c **** */
 638:Drivers/GD32F30x_standard_peripheral/Source/gd32f30x_adc.c **** uint32_t adc_sync_mode_convert_value_read(void)
 639:Drivers/GD32F30x_standard_peripheral/Source/gd32f30x_adc.c **** {
 1277              		.loc 1 639 1 is_stmt 1 view -0
 1278              		.cfi_startproc
 1279              		@ args = 0, pretend = 0, frame = 0
 1280              		@ frame_needed = 0, uses_anonymous_args = 0
 1281              		@ link register save eliminated.
 640:Drivers/GD32F30x_standard_peripheral/Source/gd32f30x_adc.c ****     /* return conversion value */
 641:Drivers/GD32F30x_standard_peripheral/Source/gd32f30x_adc.c ****     return ADC_RDATA(ADC0);
 1282              		.loc 1 641 5 view .LVU359
 1283              		.loc 1 641 12 is_stmt 0 view .LVU360
 1284 0000 014B     		ldr	r3, .L80
 1285 0002 D3F84C04 		ldr	r0, [r3, #1100]
 642:Drivers/GD32F30x_standard_peripheral/Source/gd32f30x_adc.c **** }
 1286              		.loc 1 642 1 view .LVU361
 1287 0006 7047     		bx	lr
 1288              	.L81:
 1289              		.align	2
 1290              	.L80:
 1291 0008 00200140 		.word	1073815552
 1292              		.cfi_endproc
 1293              	.LFE138:
 1295              		.section	.text.adc_flag_get,"ax",%progbits
 1296              		.align	1
 1297              		.global	adc_flag_get
 1298              		.syntax unified
 1299              		.thumb
 1300              		.thumb_func
 1302              	adc_flag_get:
 1303              	.LVL105:
 1304              	.LFB139:
 643:Drivers/GD32F30x_standard_peripheral/Source/gd32f30x_adc.c **** 
 644:Drivers/GD32F30x_standard_peripheral/Source/gd32f30x_adc.c **** /*!
 645:Drivers/GD32F30x_standard_peripheral/Source/gd32f30x_adc.c ****     \brief      get the ADC flag bits
 646:Drivers/GD32F30x_standard_peripheral/Source/gd32f30x_adc.c ****     \param[in]  adc_periph: ADCx,x=0,1,2
 647:Drivers/GD32F30x_standard_peripheral/Source/gd32f30x_adc.c ****                 only one among these parameters can be selected
 648:Drivers/GD32F30x_standard_peripheral/Source/gd32f30x_adc.c ****     \param[in]  adc_flag: the adc flag bits
 649:Drivers/GD32F30x_standard_peripheral/Source/gd32f30x_adc.c ****                 only one parameter can be selected
 650:Drivers/GD32F30x_standard_peripheral/Source/gd32f30x_adc.c ****       \arg        ADC_FLAG_WDE: analog watchdog event flag
 651:Drivers/GD32F30x_standard_peripheral/Source/gd32f30x_adc.c ****       \arg        ADC_FLAG_EOC: end of group conversion flag
ARM GAS  /tmp/ccrXzzSE.s 			page 36


 652:Drivers/GD32F30x_standard_peripheral/Source/gd32f30x_adc.c ****       \arg        ADC_FLAG_EOIC: end of inserted group conversion flag
 653:Drivers/GD32F30x_standard_peripheral/Source/gd32f30x_adc.c ****       \arg        ADC_FLAG_STIC: start flag of inserted channel group
 654:Drivers/GD32F30x_standard_peripheral/Source/gd32f30x_adc.c ****       \arg        ADC_FLAG_STRC: start flag of regular channel group
 655:Drivers/GD32F30x_standard_peripheral/Source/gd32f30x_adc.c ****     \param[out] none
 656:Drivers/GD32F30x_standard_peripheral/Source/gd32f30x_adc.c ****     \retval     FlagStatus: SET or RESET
 657:Drivers/GD32F30x_standard_peripheral/Source/gd32f30x_adc.c **** */
 658:Drivers/GD32F30x_standard_peripheral/Source/gd32f30x_adc.c **** FlagStatus adc_flag_get(uint32_t adc_periph , uint32_t adc_flag)
 659:Drivers/GD32F30x_standard_peripheral/Source/gd32f30x_adc.c **** {
 1305              		.loc 1 659 1 is_stmt 1 view -0
 1306              		.cfi_startproc
 1307              		@ args = 0, pretend = 0, frame = 0
 1308              		@ frame_needed = 0, uses_anonymous_args = 0
 1309              		@ link register save eliminated.
 660:Drivers/GD32F30x_standard_peripheral/Source/gd32f30x_adc.c ****     FlagStatus reval = RESET;
 1310              		.loc 1 660 5 view .LVU363
 661:Drivers/GD32F30x_standard_peripheral/Source/gd32f30x_adc.c ****     if(ADC_STAT(adc_periph) & adc_flag){
 1311              		.loc 1 661 5 view .LVU364
 1312              		.loc 1 661 8 is_stmt 0 view .LVU365
 1313 0000 0368     		ldr	r3, [r0]
 1314              		.loc 1 661 7 view .LVU366
 1315 0002 0B42     		tst	r3, r1
 1316 0004 01D1     		bne	.L84
 660:Drivers/GD32F30x_standard_peripheral/Source/gd32f30x_adc.c ****     FlagStatus reval = RESET;
 1317              		.loc 1 660 16 view .LVU367
 1318 0006 0020     		movs	r0, #0
 1319              	.LVL106:
 660:Drivers/GD32F30x_standard_peripheral/Source/gd32f30x_adc.c ****     FlagStatus reval = RESET;
 1320              		.loc 1 660 16 view .LVU368
 1321 0008 7047     		bx	lr
 1322              	.LVL107:
 1323              	.L84:
 662:Drivers/GD32F30x_standard_peripheral/Source/gd32f30x_adc.c ****         reval = SET;
 1324              		.loc 1 662 15 view .LVU369
 1325 000a 0120     		movs	r0, #1
 1326              	.LVL108:
 663:Drivers/GD32F30x_standard_peripheral/Source/gd32f30x_adc.c ****     }
 664:Drivers/GD32F30x_standard_peripheral/Source/gd32f30x_adc.c ****     return reval;
 1327              		.loc 1 664 5 is_stmt 1 view .LVU370
 665:Drivers/GD32F30x_standard_peripheral/Source/gd32f30x_adc.c **** }
 1328              		.loc 1 665 1 is_stmt 0 view .LVU371
 1329 000c 7047     		bx	lr
 1330              		.cfi_endproc
 1331              	.LFE139:
 1333              		.section	.text.adc_flag_clear,"ax",%progbits
 1334              		.align	1
 1335              		.global	adc_flag_clear
 1336              		.syntax unified
 1337              		.thumb
 1338              		.thumb_func
 1340              	adc_flag_clear:
 1341              	.LVL109:
 1342              	.LFB140:
 666:Drivers/GD32F30x_standard_peripheral/Source/gd32f30x_adc.c **** 
 667:Drivers/GD32F30x_standard_peripheral/Source/gd32f30x_adc.c **** /*!
 668:Drivers/GD32F30x_standard_peripheral/Source/gd32f30x_adc.c ****     \brief      clear the ADC flag bits
 669:Drivers/GD32F30x_standard_peripheral/Source/gd32f30x_adc.c ****     \param[in]  adc_periph: ADCx,x=0,1,2
 670:Drivers/GD32F30x_standard_peripheral/Source/gd32f30x_adc.c ****                 only one among these parameters can be selected
ARM GAS  /tmp/ccrXzzSE.s 			page 37


 671:Drivers/GD32F30x_standard_peripheral/Source/gd32f30x_adc.c ****     \param[in]  adc_flag: the adc flag bits
 672:Drivers/GD32F30x_standard_peripheral/Source/gd32f30x_adc.c ****                 one or more parameters can be selected
 673:Drivers/GD32F30x_standard_peripheral/Source/gd32f30x_adc.c ****       \arg        ADC_FLAG_WDE: analog watchdog event flag
 674:Drivers/GD32F30x_standard_peripheral/Source/gd32f30x_adc.c ****       \arg        ADC_FLAG_EOC: end of group conversion flag
 675:Drivers/GD32F30x_standard_peripheral/Source/gd32f30x_adc.c ****       \arg        ADC_FLAG_EOIC: end of inserted group conversion flag
 676:Drivers/GD32F30x_standard_peripheral/Source/gd32f30x_adc.c ****       \arg        ADC_FLAG_STIC: start flag of inserted channel group
 677:Drivers/GD32F30x_standard_peripheral/Source/gd32f30x_adc.c ****       \arg        ADC_FLAG_STRC: start flag of regular channel group
 678:Drivers/GD32F30x_standard_peripheral/Source/gd32f30x_adc.c ****     \param[out] none
 679:Drivers/GD32F30x_standard_peripheral/Source/gd32f30x_adc.c ****     \retval     none
 680:Drivers/GD32F30x_standard_peripheral/Source/gd32f30x_adc.c **** */
 681:Drivers/GD32F30x_standard_peripheral/Source/gd32f30x_adc.c **** void adc_flag_clear(uint32_t adc_periph , uint32_t adc_flag)
 682:Drivers/GD32F30x_standard_peripheral/Source/gd32f30x_adc.c **** {
 1343              		.loc 1 682 1 is_stmt 1 view -0
 1344              		.cfi_startproc
 1345              		@ args = 0, pretend = 0, frame = 0
 1346              		@ frame_needed = 0, uses_anonymous_args = 0
 1347              		@ link register save eliminated.
 683:Drivers/GD32F30x_standard_peripheral/Source/gd32f30x_adc.c ****     ADC_STAT(adc_periph) &= ~((uint32_t)adc_flag);
 1348              		.loc 1 683 5 view .LVU373
 1349              		.loc 1 683 26 is_stmt 0 view .LVU374
 1350 0000 0368     		ldr	r3, [r0]
 1351 0002 23EA0103 		bic	r3, r3, r1
 1352 0006 0360     		str	r3, [r0]
 684:Drivers/GD32F30x_standard_peripheral/Source/gd32f30x_adc.c **** }
 1353              		.loc 1 684 1 view .LVU375
 1354 0008 7047     		bx	lr
 1355              		.cfi_endproc
 1356              	.LFE140:
 1358              		.section	.text.adc_interrupt_flag_get,"ax",%progbits
 1359              		.align	1
 1360              		.global	adc_interrupt_flag_get
 1361              		.syntax unified
 1362              		.thumb
 1363              		.thumb_func
 1365              	adc_interrupt_flag_get:
 1366              	.LVL110:
 1367              	.LFB141:
 685:Drivers/GD32F30x_standard_peripheral/Source/gd32f30x_adc.c **** 
 686:Drivers/GD32F30x_standard_peripheral/Source/gd32f30x_adc.c **** /*!
 687:Drivers/GD32F30x_standard_peripheral/Source/gd32f30x_adc.c ****     \brief      get the ADC interrupt bits
 688:Drivers/GD32F30x_standard_peripheral/Source/gd32f30x_adc.c ****     \param[in]  adc_periph: ADCx,x=0,1,2
 689:Drivers/GD32F30x_standard_peripheral/Source/gd32f30x_adc.c ****                 only one among these parameters can be selected
 690:Drivers/GD32F30x_standard_peripheral/Source/gd32f30x_adc.c ****     \param[in]  adc_interrupt: the adc interrupt bits
 691:Drivers/GD32F30x_standard_peripheral/Source/gd32f30x_adc.c ****                 only oneparameter can be selected
 692:Drivers/GD32F30x_standard_peripheral/Source/gd32f30x_adc.c ****       \arg        ADC_INT_FLAG_WDE: analog watchdog interrupt
 693:Drivers/GD32F30x_standard_peripheral/Source/gd32f30x_adc.c ****       \arg        ADC_INT_FLAG_EOC: end of group conversion interrupt
 694:Drivers/GD32F30x_standard_peripheral/Source/gd32f30x_adc.c ****       \arg        ADC_INT_FLAG_EOIC: end of inserted group conversion interrupt
 695:Drivers/GD32F30x_standard_peripheral/Source/gd32f30x_adc.c ****     \param[out] none
 696:Drivers/GD32F30x_standard_peripheral/Source/gd32f30x_adc.c ****     \retval     FlagStatus: SET or RESET
 697:Drivers/GD32F30x_standard_peripheral/Source/gd32f30x_adc.c **** */
 698:Drivers/GD32F30x_standard_peripheral/Source/gd32f30x_adc.c **** FlagStatus adc_interrupt_flag_get(uint32_t adc_periph , uint32_t adc_interrupt)
 699:Drivers/GD32F30x_standard_peripheral/Source/gd32f30x_adc.c **** {
 1368              		.loc 1 699 1 is_stmt 1 view -0
 1369              		.cfi_startproc
 1370              		@ args = 0, pretend = 0, frame = 0
 1371              		@ frame_needed = 0, uses_anonymous_args = 0
 1372              		@ link register save eliminated.
ARM GAS  /tmp/ccrXzzSE.s 			page 38


 700:Drivers/GD32F30x_standard_peripheral/Source/gd32f30x_adc.c ****     FlagStatus interrupt_flag = RESET;
 1373              		.loc 1 700 5 view .LVU377
 701:Drivers/GD32F30x_standard_peripheral/Source/gd32f30x_adc.c ****     uint32_t state;
 1374              		.loc 1 701 5 view .LVU378
 702:Drivers/GD32F30x_standard_peripheral/Source/gd32f30x_adc.c ****     /* check the interrupt bits */
 703:Drivers/GD32F30x_standard_peripheral/Source/gd32f30x_adc.c ****     switch(adc_interrupt){
 1375              		.loc 1 703 5 view .LVU379
 1376 0000 0229     		cmp	r1, #2
 1377 0002 0FD0     		beq	.L87
 1378 0004 0429     		cmp	r1, #4
 1379 0006 17D0     		beq	.L88
 1380 0008 0129     		cmp	r1, #1
 1381 000a 01D0     		beq	.L97
 1382 000c 0020     		movs	r0, #0
 1383              	.LVL111:
 1384              		.loc 1 703 5 is_stmt 0 view .LVU380
 1385 000e 7047     		bx	lr
 1386              	.LVL112:
 1387              	.L97:
 704:Drivers/GD32F30x_standard_peripheral/Source/gd32f30x_adc.c ****     case ADC_INT_FLAG_WDE:
 705:Drivers/GD32F30x_standard_peripheral/Source/gd32f30x_adc.c ****         state = ADC_STAT(adc_periph) & ADC_STAT_WDE;
 1388              		.loc 1 705 9 is_stmt 1 view .LVU381
 1389              		.loc 1 705 17 is_stmt 0 view .LVU382
 1390 0010 0368     		ldr	r3, [r0]
 1391              		.loc 1 705 15 view .LVU383
 1392 0012 03F00103 		and	r3, r3, #1
 1393              	.LVL113:
 706:Drivers/GD32F30x_standard_peripheral/Source/gd32f30x_adc.c ****         if((ADC_CTL0(adc_periph) & ADC_CTL0_WDEIE) && state){
 1394              		.loc 1 706 9 is_stmt 1 view .LVU384
 1395              		.loc 1 706 13 is_stmt 0 view .LVU385
 1396 0016 4268     		ldr	r2, [r0, #4]
 1397              		.loc 1 706 11 view .LVU386
 1398 0018 12F0400F 		tst	r2, #64
 1399 001c 16D0     		beq	.L91
 1400              		.loc 1 706 52 discriminator 1 view .LVU387
 1401 001e BBB9     		cbnz	r3, .L92
 700:Drivers/GD32F30x_standard_peripheral/Source/gd32f30x_adc.c ****     uint32_t state;
 1402              		.loc 1 700 16 view .LVU388
 1403 0020 0020     		movs	r0, #0
 1404              	.LVL114:
 700:Drivers/GD32F30x_standard_peripheral/Source/gd32f30x_adc.c ****     uint32_t state;
 1405              		.loc 1 700 16 view .LVU389
 1406 0022 7047     		bx	lr
 1407              	.LVL115:
 1408              	.L87:
 707:Drivers/GD32F30x_standard_peripheral/Source/gd32f30x_adc.c ****           interrupt_flag = SET;
 708:Drivers/GD32F30x_standard_peripheral/Source/gd32f30x_adc.c ****         }
 709:Drivers/GD32F30x_standard_peripheral/Source/gd32f30x_adc.c ****         break;
 710:Drivers/GD32F30x_standard_peripheral/Source/gd32f30x_adc.c ****     case ADC_INT_FLAG_EOC:
 711:Drivers/GD32F30x_standard_peripheral/Source/gd32f30x_adc.c ****         state = ADC_STAT(adc_periph) & ADC_STAT_EOC;
 1409              		.loc 1 711 9 is_stmt 1 view .LVU390
 1410              		.loc 1 711 17 is_stmt 0 view .LVU391
 1411 0024 0368     		ldr	r3, [r0]
 1412              		.loc 1 711 15 view .LVU392
 1413 0026 03F00203 		and	r3, r3, #2
 1414              	.LVL116:
 712:Drivers/GD32F30x_standard_peripheral/Source/gd32f30x_adc.c ****           if((ADC_CTL0(adc_periph) & ADC_CTL0_EOCIE) && state){
ARM GAS  /tmp/ccrXzzSE.s 			page 39


 1415              		.loc 1 712 11 is_stmt 1 view .LVU393
 1416              		.loc 1 712 15 is_stmt 0 view .LVU394
 1417 002a 4268     		ldr	r2, [r0, #4]
 1418              		.loc 1 712 13 view .LVU395
 1419 002c 12F0200F 		tst	r2, #32
 1420 0030 10D0     		beq	.L93
 1421              		.loc 1 712 54 discriminator 1 view .LVU396
 1422 0032 8BB9     		cbnz	r3, .L94
 700:Drivers/GD32F30x_standard_peripheral/Source/gd32f30x_adc.c ****     uint32_t state;
 1423              		.loc 1 700 16 view .LVU397
 1424 0034 0020     		movs	r0, #0
 1425              	.LVL117:
 700:Drivers/GD32F30x_standard_peripheral/Source/gd32f30x_adc.c ****     uint32_t state;
 1426              		.loc 1 700 16 view .LVU398
 1427 0036 7047     		bx	lr
 1428              	.LVL118:
 1429              	.L88:
 713:Drivers/GD32F30x_standard_peripheral/Source/gd32f30x_adc.c ****             interrupt_flag = SET;
 714:Drivers/GD32F30x_standard_peripheral/Source/gd32f30x_adc.c ****           }
 715:Drivers/GD32F30x_standard_peripheral/Source/gd32f30x_adc.c ****         break;
 716:Drivers/GD32F30x_standard_peripheral/Source/gd32f30x_adc.c ****     case ADC_INT_FLAG_EOIC:
 717:Drivers/GD32F30x_standard_peripheral/Source/gd32f30x_adc.c ****         state = ADC_STAT(adc_periph) & ADC_STAT_EOIC;
 1430              		.loc 1 717 9 is_stmt 1 view .LVU399
 1431              		.loc 1 717 17 is_stmt 0 view .LVU400
 1432 0038 0368     		ldr	r3, [r0]
 1433              		.loc 1 717 15 view .LVU401
 1434 003a 03F00403 		and	r3, r3, #4
 1435              	.LVL119:
 718:Drivers/GD32F30x_standard_peripheral/Source/gd32f30x_adc.c ****         if((ADC_CTL0(adc_periph) & ADC_CTL0_EOICIE) && state){
 1436              		.loc 1 718 9 is_stmt 1 view .LVU402
 1437              		.loc 1 718 13 is_stmt 0 view .LVU403
 1438 003e 4268     		ldr	r2, [r0, #4]
 1439              		.loc 1 718 11 view .LVU404
 1440 0040 12F0800F 		tst	r2, #128
 1441 0044 0AD0     		beq	.L95
 1442              		.loc 1 718 53 discriminator 1 view .LVU405
 1443 0046 5BB9     		cbnz	r3, .L96
 700:Drivers/GD32F30x_standard_peripheral/Source/gd32f30x_adc.c ****     uint32_t state;
 1444              		.loc 1 700 16 view .LVU406
 1445 0048 0020     		movs	r0, #0
 1446              	.LVL120:
 700:Drivers/GD32F30x_standard_peripheral/Source/gd32f30x_adc.c ****     uint32_t state;
 1447              		.loc 1 700 16 view .LVU407
 1448 004a 7047     		bx	lr
 1449              	.LVL121:
 1450              	.L91:
 700:Drivers/GD32F30x_standard_peripheral/Source/gd32f30x_adc.c ****     uint32_t state;
 1451              		.loc 1 700 16 view .LVU408
 1452 004c 0020     		movs	r0, #0
 1453              	.LVL122:
 700:Drivers/GD32F30x_standard_peripheral/Source/gd32f30x_adc.c ****     uint32_t state;
 1454              		.loc 1 700 16 view .LVU409
 1455 004e 7047     		bx	lr
 1456              	.LVL123:
 1457              	.L92:
 707:Drivers/GD32F30x_standard_peripheral/Source/gd32f30x_adc.c ****         }
 1458              		.loc 1 707 26 view .LVU410
ARM GAS  /tmp/ccrXzzSE.s 			page 40


 1459 0050 0120     		movs	r0, #1
 1460              	.LVL124:
 707:Drivers/GD32F30x_standard_peripheral/Source/gd32f30x_adc.c ****         }
 1461              		.loc 1 707 26 view .LVU411
 1462 0052 7047     		bx	lr
 1463              	.LVL125:
 1464              	.L93:
 700:Drivers/GD32F30x_standard_peripheral/Source/gd32f30x_adc.c ****     uint32_t state;
 1465              		.loc 1 700 16 view .LVU412
 1466 0054 0020     		movs	r0, #0
 1467              	.LVL126:
 700:Drivers/GD32F30x_standard_peripheral/Source/gd32f30x_adc.c ****     uint32_t state;
 1468              		.loc 1 700 16 view .LVU413
 1469 0056 7047     		bx	lr
 1470              	.LVL127:
 1471              	.L94:
 713:Drivers/GD32F30x_standard_peripheral/Source/gd32f30x_adc.c ****           }
 1472              		.loc 1 713 28 view .LVU414
 1473 0058 0120     		movs	r0, #1
 1474              	.LVL128:
 713:Drivers/GD32F30x_standard_peripheral/Source/gd32f30x_adc.c ****           }
 1475              		.loc 1 713 28 view .LVU415
 1476 005a 7047     		bx	lr
 1477              	.LVL129:
 1478              	.L95:
 700:Drivers/GD32F30x_standard_peripheral/Source/gd32f30x_adc.c ****     uint32_t state;
 1479              		.loc 1 700 16 view .LVU416
 1480 005c 0020     		movs	r0, #0
 1481              	.LVL130:
 700:Drivers/GD32F30x_standard_peripheral/Source/gd32f30x_adc.c ****     uint32_t state;
 1482              		.loc 1 700 16 view .LVU417
 1483 005e 7047     		bx	lr
 1484              	.LVL131:
 1485              	.L96:
 719:Drivers/GD32F30x_standard_peripheral/Source/gd32f30x_adc.c ****             interrupt_flag = SET;
 1486              		.loc 1 719 28 view .LVU418
 1487 0060 0120     		movs	r0, #1
 1488              	.LVL132:
 720:Drivers/GD32F30x_standard_peripheral/Source/gd32f30x_adc.c ****         }
 721:Drivers/GD32F30x_standard_peripheral/Source/gd32f30x_adc.c ****         break;
 722:Drivers/GD32F30x_standard_peripheral/Source/gd32f30x_adc.c ****     default:
 723:Drivers/GD32F30x_standard_peripheral/Source/gd32f30x_adc.c ****         break;
 724:Drivers/GD32F30x_standard_peripheral/Source/gd32f30x_adc.c ****     }
 725:Drivers/GD32F30x_standard_peripheral/Source/gd32f30x_adc.c ****     return interrupt_flag;
 1489              		.loc 1 725 5 is_stmt 1 view .LVU419
 726:Drivers/GD32F30x_standard_peripheral/Source/gd32f30x_adc.c **** }
 1490              		.loc 1 726 1 is_stmt 0 view .LVU420
 1491 0062 7047     		bx	lr
 1492              		.cfi_endproc
 1493              	.LFE141:
 1495              		.section	.text.adc_interrupt_flag_clear,"ax",%progbits
 1496              		.align	1
 1497              		.global	adc_interrupt_flag_clear
 1498              		.syntax unified
 1499              		.thumb
 1500              		.thumb_func
 1502              	adc_interrupt_flag_clear:
ARM GAS  /tmp/ccrXzzSE.s 			page 41


 1503              	.LVL133:
 1504              	.LFB142:
 727:Drivers/GD32F30x_standard_peripheral/Source/gd32f30x_adc.c **** 
 728:Drivers/GD32F30x_standard_peripheral/Source/gd32f30x_adc.c **** /*!
 729:Drivers/GD32F30x_standard_peripheral/Source/gd32f30x_adc.c ****     \brief      clear the ADC flag
 730:Drivers/GD32F30x_standard_peripheral/Source/gd32f30x_adc.c ****     \param[in]  adc_periph: ADCx,x=0,1,2
 731:Drivers/GD32F30x_standard_peripheral/Source/gd32f30x_adc.c ****                 only one among these parameters can be selected
 732:Drivers/GD32F30x_standard_peripheral/Source/gd32f30x_adc.c ****     \param[in]  adc_interrupt: the adc status flag
 733:Drivers/GD32F30x_standard_peripheral/Source/gd32f30x_adc.c ****                 one or more parameters can be selected
 734:Drivers/GD32F30x_standard_peripheral/Source/gd32f30x_adc.c ****       \arg        ADC_INT_FLAG_WDE: analog watchdog interrupt
 735:Drivers/GD32F30x_standard_peripheral/Source/gd32f30x_adc.c ****       \arg        ADC_INT_FLAG_EOC: end of group conversion interrupt
 736:Drivers/GD32F30x_standard_peripheral/Source/gd32f30x_adc.c ****       \arg        ADC_INT_FLAG_EOIC: end of inserted group conversion interrupt
 737:Drivers/GD32F30x_standard_peripheral/Source/gd32f30x_adc.c ****     \param[out] none
 738:Drivers/GD32F30x_standard_peripheral/Source/gd32f30x_adc.c ****     \retval     none
 739:Drivers/GD32F30x_standard_peripheral/Source/gd32f30x_adc.c **** */
 740:Drivers/GD32F30x_standard_peripheral/Source/gd32f30x_adc.c **** void adc_interrupt_flag_clear(uint32_t adc_periph , uint32_t adc_interrupt)
 741:Drivers/GD32F30x_standard_peripheral/Source/gd32f30x_adc.c **** {
 1505              		.loc 1 741 1 is_stmt 1 view -0
 1506              		.cfi_startproc
 1507              		@ args = 0, pretend = 0, frame = 0
 1508              		@ frame_needed = 0, uses_anonymous_args = 0
 1509              		@ link register save eliminated.
 742:Drivers/GD32F30x_standard_peripheral/Source/gd32f30x_adc.c ****     ADC_STAT(adc_periph) &= ~((uint32_t)adc_interrupt);
 1510              		.loc 1 742 5 view .LVU422
 1511              		.loc 1 742 26 is_stmt 0 view .LVU423
 1512 0000 0368     		ldr	r3, [r0]
 1513 0002 23EA0103 		bic	r3, r3, r1
 1514 0006 0360     		str	r3, [r0]
 743:Drivers/GD32F30x_standard_peripheral/Source/gd32f30x_adc.c **** }
 1515              		.loc 1 743 1 view .LVU424
 1516 0008 7047     		bx	lr
 1517              		.cfi_endproc
 1518              	.LFE142:
 1520              		.section	.text.adc_interrupt_enable,"ax",%progbits
 1521              		.align	1
 1522              		.global	adc_interrupt_enable
 1523              		.syntax unified
 1524              		.thumb
 1525              		.thumb_func
 1527              	adc_interrupt_enable:
 1528              	.LVL134:
 1529              	.LFB143:
 744:Drivers/GD32F30x_standard_peripheral/Source/gd32f30x_adc.c **** 
 745:Drivers/GD32F30x_standard_peripheral/Source/gd32f30x_adc.c **** /*!
 746:Drivers/GD32F30x_standard_peripheral/Source/gd32f30x_adc.c ****     \brief      enable ADC interrupt 
 747:Drivers/GD32F30x_standard_peripheral/Source/gd32f30x_adc.c ****     \param[in]  adc_periph: ADCx,x=0,1,2
 748:Drivers/GD32F30x_standard_peripheral/Source/gd32f30x_adc.c ****                 only one among these parameters can be selected
 749:Drivers/GD32F30x_standard_peripheral/Source/gd32f30x_adc.c ****     \param[in]  adc_interrupt: the adc interrupt
 750:Drivers/GD32F30x_standard_peripheral/Source/gd32f30x_adc.c ****                 one or more parameters can be selected
 751:Drivers/GD32F30x_standard_peripheral/Source/gd32f30x_adc.c ****       \arg        ADC_INT_WDE: analog watchdog interrupt flag
 752:Drivers/GD32F30x_standard_peripheral/Source/gd32f30x_adc.c ****       \arg        ADC_INT_EOC: end of group conversion interrupt flag
 753:Drivers/GD32F30x_standard_peripheral/Source/gd32f30x_adc.c ****       \arg        ADC_INT_EOIC: end of inserted group conversion interrupt flag
 754:Drivers/GD32F30x_standard_peripheral/Source/gd32f30x_adc.c ****     \param[out] none
 755:Drivers/GD32F30x_standard_peripheral/Source/gd32f30x_adc.c ****     \retval     none
 756:Drivers/GD32F30x_standard_peripheral/Source/gd32f30x_adc.c **** */
 757:Drivers/GD32F30x_standard_peripheral/Source/gd32f30x_adc.c **** void adc_interrupt_enable(uint32_t adc_periph , uint32_t adc_interrupt)
 758:Drivers/GD32F30x_standard_peripheral/Source/gd32f30x_adc.c **** {
ARM GAS  /tmp/ccrXzzSE.s 			page 42


 1530              		.loc 1 758 1 is_stmt 1 view -0
 1531              		.cfi_startproc
 1532              		@ args = 0, pretend = 0, frame = 0
 1533              		@ frame_needed = 0, uses_anonymous_args = 0
 1534              		@ link register save eliminated.
 759:Drivers/GD32F30x_standard_peripheral/Source/gd32f30x_adc.c ****     if(0U != (adc_interrupt & ADC_INT_WDE)){  
 1535              		.loc 1 759 5 view .LVU426
 1536              		.loc 1 759 7 is_stmt 0 view .LVU427
 1537 0000 11F0010F 		tst	r1, #1
 1538 0004 03D0     		beq	.L100
 760:Drivers/GD32F30x_standard_peripheral/Source/gd32f30x_adc.c ****         ADC_CTL0(adc_periph) |= (uint32_t) ADC_CTL0_WDEIE;
 1539              		.loc 1 760 9 is_stmt 1 view .LVU428
 1540              		.loc 1 760 30 is_stmt 0 view .LVU429
 1541 0006 4368     		ldr	r3, [r0, #4]
 1542 0008 43F04003 		orr	r3, r3, #64
 1543 000c 4360     		str	r3, [r0, #4]
 1544              	.L100:
 761:Drivers/GD32F30x_standard_peripheral/Source/gd32f30x_adc.c ****     }  
 762:Drivers/GD32F30x_standard_peripheral/Source/gd32f30x_adc.c **** 
 763:Drivers/GD32F30x_standard_peripheral/Source/gd32f30x_adc.c ****     if(0U != (adc_interrupt & ADC_INT_EOC)){      
 1545              		.loc 1 763 5 is_stmt 1 view .LVU430
 1546              		.loc 1 763 7 is_stmt 0 view .LVU431
 1547 000e 11F0020F 		tst	r1, #2
 1548 0012 03D0     		beq	.L101
 764:Drivers/GD32F30x_standard_peripheral/Source/gd32f30x_adc.c ****         ADC_CTL0(adc_periph) |= (uint32_t) ADC_CTL0_EOCIE;
 1549              		.loc 1 764 9 is_stmt 1 view .LVU432
 1550              		.loc 1 764 30 is_stmt 0 view .LVU433
 1551 0014 4368     		ldr	r3, [r0, #4]
 1552 0016 43F02003 		orr	r3, r3, #32
 1553 001a 4360     		str	r3, [r0, #4]
 1554              	.L101:
 765:Drivers/GD32F30x_standard_peripheral/Source/gd32f30x_adc.c ****     }  
 766:Drivers/GD32F30x_standard_peripheral/Source/gd32f30x_adc.c **** 
 767:Drivers/GD32F30x_standard_peripheral/Source/gd32f30x_adc.c ****     if(0U != (adc_interrupt & ADC_INT_EOIC)){      
 1555              		.loc 1 767 5 is_stmt 1 view .LVU434
 1556              		.loc 1 767 7 is_stmt 0 view .LVU435
 1557 001c 11F0040F 		tst	r1, #4
 1558 0020 03D0     		beq	.L99
 768:Drivers/GD32F30x_standard_peripheral/Source/gd32f30x_adc.c ****         ADC_CTL0(adc_periph) |= (uint32_t) ADC_CTL0_EOICIE;
 1559              		.loc 1 768 9 is_stmt 1 view .LVU436
 1560              		.loc 1 768 30 is_stmt 0 view .LVU437
 1561 0022 4368     		ldr	r3, [r0, #4]
 1562 0024 43F08003 		orr	r3, r3, #128
 1563 0028 4360     		str	r3, [r0, #4]
 1564              	.L99:
 769:Drivers/GD32F30x_standard_peripheral/Source/gd32f30x_adc.c ****     }
 770:Drivers/GD32F30x_standard_peripheral/Source/gd32f30x_adc.c **** }
 1565              		.loc 1 770 1 view .LVU438
 1566 002a 7047     		bx	lr
 1567              		.cfi_endproc
 1568              	.LFE143:
 1570              		.section	.text.adc_interrupt_disable,"ax",%progbits
 1571              		.align	1
 1572              		.global	adc_interrupt_disable
 1573              		.syntax unified
 1574              		.thumb
 1575              		.thumb_func
ARM GAS  /tmp/ccrXzzSE.s 			page 43


 1577              	adc_interrupt_disable:
 1578              	.LVL135:
 1579              	.LFB144:
 771:Drivers/GD32F30x_standard_peripheral/Source/gd32f30x_adc.c **** 
 772:Drivers/GD32F30x_standard_peripheral/Source/gd32f30x_adc.c **** /*!
 773:Drivers/GD32F30x_standard_peripheral/Source/gd32f30x_adc.c ****     \brief      disable ADC interrupt 
 774:Drivers/GD32F30x_standard_peripheral/Source/gd32f30x_adc.c ****     \param[in]  adc_periph: ADCx,x=0,1,2
 775:Drivers/GD32F30x_standard_peripheral/Source/gd32f30x_adc.c ****                 only one among these parameters can be selected
 776:Drivers/GD32F30x_standard_peripheral/Source/gd32f30x_adc.c ****     \param[in]  adc_interrupt: the adc interrupt flag
 777:Drivers/GD32F30x_standard_peripheral/Source/gd32f30x_adc.c ****                 one or more parameters can be selected
 778:Drivers/GD32F30x_standard_peripheral/Source/gd32f30x_adc.c ****       \arg        ADC_INT_WDE: analog watchdog interrupt flag
 779:Drivers/GD32F30x_standard_peripheral/Source/gd32f30x_adc.c ****       \arg        ADC_INT_EOC: end of group conversion interrupt flag
 780:Drivers/GD32F30x_standard_peripheral/Source/gd32f30x_adc.c ****       \arg        ADC_INT_EOIC: end of inserted group conversion interrupt flag
 781:Drivers/GD32F30x_standard_peripheral/Source/gd32f30x_adc.c ****     \param[out] none
 782:Drivers/GD32F30x_standard_peripheral/Source/gd32f30x_adc.c ****     \retval     none
 783:Drivers/GD32F30x_standard_peripheral/Source/gd32f30x_adc.c **** */
 784:Drivers/GD32F30x_standard_peripheral/Source/gd32f30x_adc.c **** void adc_interrupt_disable(uint32_t adc_periph, uint32_t adc_interrupt)
 785:Drivers/GD32F30x_standard_peripheral/Source/gd32f30x_adc.c **** {  
 1580              		.loc 1 785 1 is_stmt 1 view -0
 1581              		.cfi_startproc
 1582              		@ args = 0, pretend = 0, frame = 0
 1583              		@ frame_needed = 0, uses_anonymous_args = 0
 1584              		@ link register save eliminated.
 786:Drivers/GD32F30x_standard_peripheral/Source/gd32f30x_adc.c ****     if(0U != (adc_interrupt & ADC_INT_WDE)){  
 1585              		.loc 1 786 5 view .LVU440
 1586              		.loc 1 786 7 is_stmt 0 view .LVU441
 1587 0000 11F0010F 		tst	r1, #1
 1588 0004 03D0     		beq	.L104
 787:Drivers/GD32F30x_standard_peripheral/Source/gd32f30x_adc.c ****         ADC_CTL0(adc_periph) &= ~(uint32_t) ADC_CTL0_WDEIE;
 1589              		.loc 1 787 9 is_stmt 1 view .LVU442
 1590              		.loc 1 787 30 is_stmt 0 view .LVU443
 1591 0006 4368     		ldr	r3, [r0, #4]
 1592 0008 23F04003 		bic	r3, r3, #64
 1593 000c 4360     		str	r3, [r0, #4]
 1594              	.L104:
 788:Drivers/GD32F30x_standard_peripheral/Source/gd32f30x_adc.c ****     }  
 789:Drivers/GD32F30x_standard_peripheral/Source/gd32f30x_adc.c **** 
 790:Drivers/GD32F30x_standard_peripheral/Source/gd32f30x_adc.c ****     if(0U != (adc_interrupt & ADC_INT_EOC)){      
 1595              		.loc 1 790 5 is_stmt 1 view .LVU444
 1596              		.loc 1 790 7 is_stmt 0 view .LVU445
 1597 000e 11F0020F 		tst	r1, #2
 1598 0012 03D0     		beq	.L105
 791:Drivers/GD32F30x_standard_peripheral/Source/gd32f30x_adc.c ****         ADC_CTL0(adc_periph) &= ~(uint32_t) ADC_CTL0_EOCIE;
 1599              		.loc 1 791 9 is_stmt 1 view .LVU446
 1600              		.loc 1 791 30 is_stmt 0 view .LVU447
 1601 0014 4368     		ldr	r3, [r0, #4]
 1602 0016 23F02003 		bic	r3, r3, #32
 1603 001a 4360     		str	r3, [r0, #4]
 1604              	.L105:
 792:Drivers/GD32F30x_standard_peripheral/Source/gd32f30x_adc.c ****     }  
 793:Drivers/GD32F30x_standard_peripheral/Source/gd32f30x_adc.c **** 
 794:Drivers/GD32F30x_standard_peripheral/Source/gd32f30x_adc.c ****     if(0U != (adc_interrupt & ADC_INT_EOIC)){      
 1605              		.loc 1 794 5 is_stmt 1 view .LVU448
 1606              		.loc 1 794 7 is_stmt 0 view .LVU449
 1607 001c 11F0040F 		tst	r1, #4
 1608 0020 03D0     		beq	.L103
 795:Drivers/GD32F30x_standard_peripheral/Source/gd32f30x_adc.c ****         ADC_CTL0(adc_periph) &= ~(uint32_t) ADC_CTL0_EOICIE;
ARM GAS  /tmp/ccrXzzSE.s 			page 44


 1609              		.loc 1 795 9 is_stmt 1 view .LVU450
 1610              		.loc 1 795 30 is_stmt 0 view .LVU451
 1611 0022 4368     		ldr	r3, [r0, #4]
 1612 0024 23F08003 		bic	r3, r3, #128
 1613 0028 4360     		str	r3, [r0, #4]
 1614              	.L103:
 796:Drivers/GD32F30x_standard_peripheral/Source/gd32f30x_adc.c ****     }
 797:Drivers/GD32F30x_standard_peripheral/Source/gd32f30x_adc.c **** }
 1615              		.loc 1 797 1 view .LVU452
 1616 002a 7047     		bx	lr
 1617              		.cfi_endproc
 1618              	.LFE144:
 1620              		.section	.text.adc_watchdog_single_channel_enable,"ax",%progbits
 1621              		.align	1
 1622              		.global	adc_watchdog_single_channel_enable
 1623              		.syntax unified
 1624              		.thumb
 1625              		.thumb_func
 1627              	adc_watchdog_single_channel_enable:
 1628              	.LVL136:
 1629              	.LFB145:
 798:Drivers/GD32F30x_standard_peripheral/Source/gd32f30x_adc.c **** 
 799:Drivers/GD32F30x_standard_peripheral/Source/gd32f30x_adc.c **** /*!
 800:Drivers/GD32F30x_standard_peripheral/Source/gd32f30x_adc.c ****     \brief      configure ADC analog watchdog single channel 
 801:Drivers/GD32F30x_standard_peripheral/Source/gd32f30x_adc.c ****     \param[in]  adc_periph: ADCx,x=0,1,2
 802:Drivers/GD32F30x_standard_peripheral/Source/gd32f30x_adc.c ****                 only one among these parameters can be selected
 803:Drivers/GD32F30x_standard_peripheral/Source/gd32f30x_adc.c ****     \param[in]  adc_channel: the selected ADC channel
 804:Drivers/GD32F30x_standard_peripheral/Source/gd32f30x_adc.c ****                 only one among these parameters can be selected
 805:Drivers/GD32F30x_standard_peripheral/Source/gd32f30x_adc.c ****       \arg        ADC_CHANNEL_x: ADC Channelx(x=0..17)(x=16 and x=17 are only for ADC0)
 806:Drivers/GD32F30x_standard_peripheral/Source/gd32f30x_adc.c ****     \param[out] none
 807:Drivers/GD32F30x_standard_peripheral/Source/gd32f30x_adc.c ****     \retval     none
 808:Drivers/GD32F30x_standard_peripheral/Source/gd32f30x_adc.c **** */
 809:Drivers/GD32F30x_standard_peripheral/Source/gd32f30x_adc.c **** void adc_watchdog_single_channel_enable(uint32_t adc_periph, uint8_t adc_channel)
 810:Drivers/GD32F30x_standard_peripheral/Source/gd32f30x_adc.c **** {
 1630              		.loc 1 810 1 is_stmt 1 view -0
 1631              		.cfi_startproc
 1632              		@ args = 0, pretend = 0, frame = 0
 1633              		@ frame_needed = 0, uses_anonymous_args = 0
 1634              		@ link register save eliminated.
 811:Drivers/GD32F30x_standard_peripheral/Source/gd32f30x_adc.c ****     ADC_CTL0(adc_periph) &= (uint32_t)~(ADC_CTL0_RWDEN | ADC_CTL0_IWDEN | ADC_CTL0_WDSC | ADC_CTL0_
 1635              		.loc 1 811 5 view .LVU454
 1636              		.loc 1 811 26 is_stmt 0 view .LVU455
 1637 0000 4368     		ldr	r3, [r0, #4]
 1638 0002 064A     		ldr	r2, .L108
 1639 0004 1A40     		ands	r2, r2, r3
 1640 0006 4260     		str	r2, [r0, #4]
 812:Drivers/GD32F30x_standard_peripheral/Source/gd32f30x_adc.c **** 
 813:Drivers/GD32F30x_standard_peripheral/Source/gd32f30x_adc.c ****     ADC_CTL0(adc_periph) |= (uint32_t)adc_channel;
 1641              		.loc 1 813 5 is_stmt 1 view .LVU456
 1642              		.loc 1 813 26 is_stmt 0 view .LVU457
 1643 0008 4368     		ldr	r3, [r0, #4]
 1644 000a 0B43     		orrs	r3, r3, r1
 1645 000c 4360     		str	r3, [r0, #4]
 814:Drivers/GD32F30x_standard_peripheral/Source/gd32f30x_adc.c ****     ADC_CTL0(adc_periph) |= (uint32_t)(ADC_CTL0_RWDEN | ADC_CTL0_IWDEN | ADC_CTL0_WDSC);
 1646              		.loc 1 814 5 is_stmt 1 view .LVU458
 1647              		.loc 1 814 26 is_stmt 0 view .LVU459
 1648 000e 4368     		ldr	r3, [r0, #4]
ARM GAS  /tmp/ccrXzzSE.s 			page 45


 1649 0010 43F44003 		orr	r3, r3, #12582912
 1650 0014 43F40073 		orr	r3, r3, #512
 1651 0018 4360     		str	r3, [r0, #4]
 815:Drivers/GD32F30x_standard_peripheral/Source/gd32f30x_adc.c **** }
 1652              		.loc 1 815 1 view .LVU460
 1653 001a 7047     		bx	lr
 1654              	.L109:
 1655              		.align	2
 1656              	.L108:
 1657 001c E0FD3FFF 		.word	-12583456
 1658              		.cfi_endproc
 1659              	.LFE145:
 1661              		.section	.text.adc_watchdog_group_channel_enable,"ax",%progbits
 1662              		.align	1
 1663              		.global	adc_watchdog_group_channel_enable
 1664              		.syntax unified
 1665              		.thumb
 1666              		.thumb_func
 1668              	adc_watchdog_group_channel_enable:
 1669              	.LVL137:
 1670              	.LFB146:
 816:Drivers/GD32F30x_standard_peripheral/Source/gd32f30x_adc.c **** 
 817:Drivers/GD32F30x_standard_peripheral/Source/gd32f30x_adc.c **** /*!
 818:Drivers/GD32F30x_standard_peripheral/Source/gd32f30x_adc.c ****     \brief      configure ADC analog watchdog group channel 
 819:Drivers/GD32F30x_standard_peripheral/Source/gd32f30x_adc.c ****     \param[in]  adc_periph: ADCx,x=0,1,2
 820:Drivers/GD32F30x_standard_peripheral/Source/gd32f30x_adc.c ****                 only one among these parameters can be selected
 821:Drivers/GD32F30x_standard_peripheral/Source/gd32f30x_adc.c ****     \param[in]  adc_channel_group: the channel group use analog watchdog
 822:Drivers/GD32F30x_standard_peripheral/Source/gd32f30x_adc.c ****                 only one parameter can be selected 
 823:Drivers/GD32F30x_standard_peripheral/Source/gd32f30x_adc.c ****       \arg        ADC_REGULAR_CHANNEL: regular channel group
 824:Drivers/GD32F30x_standard_peripheral/Source/gd32f30x_adc.c ****       \arg        ADC_INSERTED_CHANNEL: inserted channel group
 825:Drivers/GD32F30x_standard_peripheral/Source/gd32f30x_adc.c ****       \arg        ADC_REGULAR_INSERTED_CHANNEL: both regular and inserted group
 826:Drivers/GD32F30x_standard_peripheral/Source/gd32f30x_adc.c ****     \param[out] none
 827:Drivers/GD32F30x_standard_peripheral/Source/gd32f30x_adc.c ****     \retval     none
 828:Drivers/GD32F30x_standard_peripheral/Source/gd32f30x_adc.c **** */
 829:Drivers/GD32F30x_standard_peripheral/Source/gd32f30x_adc.c **** void adc_watchdog_group_channel_enable(uint32_t adc_periph, uint8_t adc_channel_group)
 830:Drivers/GD32F30x_standard_peripheral/Source/gd32f30x_adc.c **** {
 1671              		.loc 1 830 1 is_stmt 1 view -0
 1672              		.cfi_startproc
 1673              		@ args = 0, pretend = 0, frame = 0
 1674              		@ frame_needed = 0, uses_anonymous_args = 0
 1675              		@ link register save eliminated.
 831:Drivers/GD32F30x_standard_peripheral/Source/gd32f30x_adc.c ****     ADC_CTL0(adc_periph) &= (uint32_t)~(ADC_CTL0_RWDEN | ADC_CTL0_IWDEN | ADC_CTL0_WDSC);
 1676              		.loc 1 831 5 view .LVU462
 1677              		.loc 1 831 26 is_stmt 0 view .LVU463
 1678 0000 4368     		ldr	r3, [r0, #4]
 1679 0002 23F44003 		bic	r3, r3, #12582912
 1680 0006 23F40073 		bic	r3, r3, #512
 1681 000a 4360     		str	r3, [r0, #4]
 832:Drivers/GD32F30x_standard_peripheral/Source/gd32f30x_adc.c ****     /* select the group */
 833:Drivers/GD32F30x_standard_peripheral/Source/gd32f30x_adc.c ****     switch(adc_channel_group){
 1682              		.loc 1 833 5 is_stmt 1 view .LVU464
 1683 000c 0229     		cmp	r1, #2
 1684 000e 09D0     		beq	.L111
 1685 0010 0329     		cmp	r1, #3
 1686 0012 0CD0     		beq	.L112
 1687 0014 0129     		cmp	r1, #1
 1688 0016 00D0     		beq	.L114
ARM GAS  /tmp/ccrXzzSE.s 			page 46


 1689              	.L110:
 834:Drivers/GD32F30x_standard_peripheral/Source/gd32f30x_adc.c ****     case ADC_REGULAR_CHANNEL:
 835:Drivers/GD32F30x_standard_peripheral/Source/gd32f30x_adc.c ****         ADC_CTL0(adc_periph) |= (uint32_t) ADC_CTL0_RWDEN;
 836:Drivers/GD32F30x_standard_peripheral/Source/gd32f30x_adc.c ****         break;
 837:Drivers/GD32F30x_standard_peripheral/Source/gd32f30x_adc.c ****     case ADC_INSERTED_CHANNEL:
 838:Drivers/GD32F30x_standard_peripheral/Source/gd32f30x_adc.c ****         ADC_CTL0(adc_periph) |= (uint32_t) ADC_CTL0_IWDEN;
 839:Drivers/GD32F30x_standard_peripheral/Source/gd32f30x_adc.c ****         break;
 840:Drivers/GD32F30x_standard_peripheral/Source/gd32f30x_adc.c ****     case ADC_REGULAR_INSERTED_CHANNEL:
 841:Drivers/GD32F30x_standard_peripheral/Source/gd32f30x_adc.c ****         ADC_CTL0(adc_periph) |= (uint32_t)(ADC_CTL0_RWDEN | ADC_CTL0_IWDEN);
 842:Drivers/GD32F30x_standard_peripheral/Source/gd32f30x_adc.c ****         break;
 843:Drivers/GD32F30x_standard_peripheral/Source/gd32f30x_adc.c ****     default:
 844:Drivers/GD32F30x_standard_peripheral/Source/gd32f30x_adc.c ****         break;
 845:Drivers/GD32F30x_standard_peripheral/Source/gd32f30x_adc.c ****     }
 846:Drivers/GD32F30x_standard_peripheral/Source/gd32f30x_adc.c **** }
 1690              		.loc 1 846 1 is_stmt 0 view .LVU465
 1691 0018 7047     		bx	lr
 1692              	.L114:
 835:Drivers/GD32F30x_standard_peripheral/Source/gd32f30x_adc.c ****         break;
 1693              		.loc 1 835 9 is_stmt 1 view .LVU466
 835:Drivers/GD32F30x_standard_peripheral/Source/gd32f30x_adc.c ****         break;
 1694              		.loc 1 835 30 is_stmt 0 view .LVU467
 1695 001a 4368     		ldr	r3, [r0, #4]
 1696 001c 43F40003 		orr	r3, r3, #8388608
 1697 0020 4360     		str	r3, [r0, #4]
 836:Drivers/GD32F30x_standard_peripheral/Source/gd32f30x_adc.c ****     case ADC_INSERTED_CHANNEL:
 1698              		.loc 1 836 9 is_stmt 1 view .LVU468
 1699 0022 7047     		bx	lr
 1700              	.L111:
 838:Drivers/GD32F30x_standard_peripheral/Source/gd32f30x_adc.c ****         break;
 1701              		.loc 1 838 9 view .LVU469
 838:Drivers/GD32F30x_standard_peripheral/Source/gd32f30x_adc.c ****         break;
 1702              		.loc 1 838 30 is_stmt 0 view .LVU470
 1703 0024 4368     		ldr	r3, [r0, #4]
 1704 0026 43F48003 		orr	r3, r3, #4194304
 1705 002a 4360     		str	r3, [r0, #4]
 839:Drivers/GD32F30x_standard_peripheral/Source/gd32f30x_adc.c ****     case ADC_REGULAR_INSERTED_CHANNEL:
 1706              		.loc 1 839 9 is_stmt 1 view .LVU471
 1707 002c 7047     		bx	lr
 1708              	.L112:
 841:Drivers/GD32F30x_standard_peripheral/Source/gd32f30x_adc.c ****         break;
 1709              		.loc 1 841 9 view .LVU472
 841:Drivers/GD32F30x_standard_peripheral/Source/gd32f30x_adc.c ****         break;
 1710              		.loc 1 841 30 is_stmt 0 view .LVU473
 1711 002e 4368     		ldr	r3, [r0, #4]
 1712 0030 43F44003 		orr	r3, r3, #12582912
 1713 0034 4360     		str	r3, [r0, #4]
 842:Drivers/GD32F30x_standard_peripheral/Source/gd32f30x_adc.c ****     default:
 1714              		.loc 1 842 9 is_stmt 1 view .LVU474
 1715              		.loc 1 846 1 is_stmt 0 view .LVU475
 1716 0036 EFE7     		b	.L110
 1717              		.cfi_endproc
 1718              	.LFE146:
 1720              		.section	.text.adc_watchdog_disable,"ax",%progbits
 1721              		.align	1
 1722              		.global	adc_watchdog_disable
 1723              		.syntax unified
 1724              		.thumb
ARM GAS  /tmp/ccrXzzSE.s 			page 47


 1725              		.thumb_func
 1727              	adc_watchdog_disable:
 1728              	.LVL138:
 1729              	.LFB147:
 847:Drivers/GD32F30x_standard_peripheral/Source/gd32f30x_adc.c **** 
 848:Drivers/GD32F30x_standard_peripheral/Source/gd32f30x_adc.c **** /*!
 849:Drivers/GD32F30x_standard_peripheral/Source/gd32f30x_adc.c ****     \brief      disable ADC analog watchdog 
 850:Drivers/GD32F30x_standard_peripheral/Source/gd32f30x_adc.c ****     \param[in]  adc_periph: ADCx,x=0,1,2
 851:Drivers/GD32F30x_standard_peripheral/Source/gd32f30x_adc.c ****                 only one among these parameters can be selected
 852:Drivers/GD32F30x_standard_peripheral/Source/gd32f30x_adc.c ****     \param[out] none
 853:Drivers/GD32F30x_standard_peripheral/Source/gd32f30x_adc.c ****     \retval     none
 854:Drivers/GD32F30x_standard_peripheral/Source/gd32f30x_adc.c **** */
 855:Drivers/GD32F30x_standard_peripheral/Source/gd32f30x_adc.c **** void adc_watchdog_disable(uint32_t adc_periph)
 856:Drivers/GD32F30x_standard_peripheral/Source/gd32f30x_adc.c **** {
 1730              		.loc 1 856 1 is_stmt 1 view -0
 1731              		.cfi_startproc
 1732              		@ args = 0, pretend = 0, frame = 0
 1733              		@ frame_needed = 0, uses_anonymous_args = 0
 1734              		@ link register save eliminated.
 857:Drivers/GD32F30x_standard_peripheral/Source/gd32f30x_adc.c ****     ADC_CTL0(adc_periph) &= (uint32_t)~(ADC_CTL0_RWDEN | ADC_CTL0_IWDEN | ADC_CTL0_WDSC | ADC_CTL0_
 1735              		.loc 1 857 5 view .LVU477
 1736              		.loc 1 857 26 is_stmt 0 view .LVU478
 1737 0000 4268     		ldr	r2, [r0, #4]
 1738 0002 024B     		ldr	r3, .L116
 1739 0004 1340     		ands	r3, r3, r2
 1740 0006 4360     		str	r3, [r0, #4]
 858:Drivers/GD32F30x_standard_peripheral/Source/gd32f30x_adc.c **** }
 1741              		.loc 1 858 1 view .LVU479
 1742 0008 7047     		bx	lr
 1743              	.L117:
 1744 000a 00BF     		.align	2
 1745              	.L116:
 1746 000c E0FD3FFF 		.word	-12583456
 1747              		.cfi_endproc
 1748              	.LFE147:
 1750              		.section	.text.adc_watchdog_threshold_config,"ax",%progbits
 1751              		.align	1
 1752              		.global	adc_watchdog_threshold_config
 1753              		.syntax unified
 1754              		.thumb
 1755              		.thumb_func
 1757              	adc_watchdog_threshold_config:
 1758              	.LVL139:
 1759              	.LFB148:
 859:Drivers/GD32F30x_standard_peripheral/Source/gd32f30x_adc.c **** 
 860:Drivers/GD32F30x_standard_peripheral/Source/gd32f30x_adc.c **** /*!
 861:Drivers/GD32F30x_standard_peripheral/Source/gd32f30x_adc.c ****     \brief      configure ADC analog watchdog threshold 
 862:Drivers/GD32F30x_standard_peripheral/Source/gd32f30x_adc.c ****     \param[in]  adc_periph: ADCx,x=0,1,2
 863:Drivers/GD32F30x_standard_peripheral/Source/gd32f30x_adc.c ****                 only one among these parameters can be selected
 864:Drivers/GD32F30x_standard_peripheral/Source/gd32f30x_adc.c ****     \param[in]  low_threshold: analog watchdog low threshold,0..4095
 865:Drivers/GD32F30x_standard_peripheral/Source/gd32f30x_adc.c ****     \param[in]  high_threshold: analog watchdog high threshold,0..4095
 866:Drivers/GD32F30x_standard_peripheral/Source/gd32f30x_adc.c ****     \param[out] none
 867:Drivers/GD32F30x_standard_peripheral/Source/gd32f30x_adc.c ****     \retval     none
 868:Drivers/GD32F30x_standard_peripheral/Source/gd32f30x_adc.c **** */
 869:Drivers/GD32F30x_standard_peripheral/Source/gd32f30x_adc.c **** void adc_watchdog_threshold_config(uint32_t adc_periph , uint16_t low_threshold , uint16_t high_thr
 870:Drivers/GD32F30x_standard_peripheral/Source/gd32f30x_adc.c **** {
 1760              		.loc 1 870 1 is_stmt 1 view -0
ARM GAS  /tmp/ccrXzzSE.s 			page 48


 1761              		.cfi_startproc
 1762              		@ args = 0, pretend = 0, frame = 0
 1763              		@ frame_needed = 0, uses_anonymous_args = 0
 1764              		@ link register save eliminated.
 871:Drivers/GD32F30x_standard_peripheral/Source/gd32f30x_adc.c ****     ADC_WDLT(adc_periph) = (uint32_t)WDLT_WDLT(low_threshold);
 1765              		.loc 1 871 5 view .LVU481
 1766              		.loc 1 871 28 is_stmt 0 view .LVU482
 1767 0000 C1F30B01 		ubfx	r1, r1, #0, #12
 1768              	.LVL140:
 1769              		.loc 1 871 26 view .LVU483
 1770 0004 8162     		str	r1, [r0, #40]
 872:Drivers/GD32F30x_standard_peripheral/Source/gd32f30x_adc.c ****     ADC_WDHT(adc_periph) = (uint32_t)WDHT_WDHT(high_threshold);
 1771              		.loc 1 872 5 is_stmt 1 view .LVU484
 1772              		.loc 1 872 28 is_stmt 0 view .LVU485
 1773 0006 C2F30B02 		ubfx	r2, r2, #0, #12
 1774              	.LVL141:
 1775              		.loc 1 872 26 view .LVU486
 1776 000a 4262     		str	r2, [r0, #36]
 873:Drivers/GD32F30x_standard_peripheral/Source/gd32f30x_adc.c **** }
 1777              		.loc 1 873 1 view .LVU487
 1778 000c 7047     		bx	lr
 1779              		.cfi_endproc
 1780              	.LFE148:
 1782              		.section	.text.adc_oversample_mode_config,"ax",%progbits
 1783              		.align	1
 1784              		.global	adc_oversample_mode_config
 1785              		.syntax unified
 1786              		.thumb
 1787              		.thumb_func
 1789              	adc_oversample_mode_config:
 1790              	.LVL142:
 1791              	.LFB149:
 874:Drivers/GD32F30x_standard_peripheral/Source/gd32f30x_adc.c **** 
 875:Drivers/GD32F30x_standard_peripheral/Source/gd32f30x_adc.c **** /*!
 876:Drivers/GD32F30x_standard_peripheral/Source/gd32f30x_adc.c ****     \brief      configure ADC oversample mode 
 877:Drivers/GD32F30x_standard_peripheral/Source/gd32f30x_adc.c ****     \param[in]  adc_periph: ADCx,x=0,1,2
 878:Drivers/GD32F30x_standard_peripheral/Source/gd32f30x_adc.c ****                 only one among these parameters can be selected
 879:Drivers/GD32F30x_standard_peripheral/Source/gd32f30x_adc.c ****     \param[in]  mode: ADC oversampling mode
 880:Drivers/GD32F30x_standard_peripheral/Source/gd32f30x_adc.c ****                 only oneparameter can be selected
 881:Drivers/GD32F30x_standard_peripheral/Source/gd32f30x_adc.c ****       \arg        ADC_OVERSAMPLING_ALL_CONVERT: all oversampled conversions for a channel are done 
 882:Drivers/GD32F30x_standard_peripheral/Source/gd32f30x_adc.c ****       \arg        ADC_OVERSAMPLING_ONE_CONVERT: each oversampled conversion for a channel needs a t
 883:Drivers/GD32F30x_standard_peripheral/Source/gd32f30x_adc.c ****     \param[in]  shift: ADC oversampling shift
 884:Drivers/GD32F30x_standard_peripheral/Source/gd32f30x_adc.c ****                 only oneparameter can be selected
 885:Drivers/GD32F30x_standard_peripheral/Source/gd32f30x_adc.c ****       \arg        ADC_OVERSAMPLING_SHIFT_NONE: no oversampling shift
 886:Drivers/GD32F30x_standard_peripheral/Source/gd32f30x_adc.c ****       \arg        ADC_OVERSAMPLING_SHIFT_1B: 1-bit oversampling shift
 887:Drivers/GD32F30x_standard_peripheral/Source/gd32f30x_adc.c ****       \arg        ADC_OVERSAMPLING_SHIFT_2B: 2-bit oversampling shift
 888:Drivers/GD32F30x_standard_peripheral/Source/gd32f30x_adc.c ****       \arg        ADC_OVERSAMPLING_SHIFT_3B: 3-bit oversampling shift
 889:Drivers/GD32F30x_standard_peripheral/Source/gd32f30x_adc.c ****       \arg        ADC_OVERSAMPLING_SHIFT_4B: 3-bit oversampling shift
 890:Drivers/GD32F30x_standard_peripheral/Source/gd32f30x_adc.c ****       \arg        ADC_OVERSAMPLING_SHIFT_5B: 5-bit oversampling shift
 891:Drivers/GD32F30x_standard_peripheral/Source/gd32f30x_adc.c ****       \arg        ADC_OVERSAMPLING_SHIFT_6B: 6-bit oversampling shift
 892:Drivers/GD32F30x_standard_peripheral/Source/gd32f30x_adc.c ****       \arg        ADC_OVERSAMPLING_SHIFT_7B: 7-bit oversampling shift
 893:Drivers/GD32F30x_standard_peripheral/Source/gd32f30x_adc.c ****       \arg        ADC_OVERSAMPLING_SHIFT_8B: 8-bit oversampling shift
 894:Drivers/GD32F30x_standard_peripheral/Source/gd32f30x_adc.c ****     \param[in]  ratio: ADC oversampling ratio
 895:Drivers/GD32F30x_standard_peripheral/Source/gd32f30x_adc.c ****                 only oneparameter can be selected
 896:Drivers/GD32F30x_standard_peripheral/Source/gd32f30x_adc.c ****       \arg        ADC_OVERSAMPLING_RATIO_MUL2: oversampling ratio multiple 2
 897:Drivers/GD32F30x_standard_peripheral/Source/gd32f30x_adc.c ****       \arg        ADC_OVERSAMPLING_RATIO_MUL4: oversampling ratio multiple 4
 898:Drivers/GD32F30x_standard_peripheral/Source/gd32f30x_adc.c ****       \arg        ADC_OVERSAMPLING_RATIO_MUL8: oversampling ratio multiple 8
ARM GAS  /tmp/ccrXzzSE.s 			page 49


 899:Drivers/GD32F30x_standard_peripheral/Source/gd32f30x_adc.c ****       \arg        ADC_OVERSAMPLING_RATIO_MUL16: oversampling ratio multiple 16
 900:Drivers/GD32F30x_standard_peripheral/Source/gd32f30x_adc.c ****       \arg        ADC_OVERSAMPLING_RATIO_MUL32: oversampling ratio multiple 32
 901:Drivers/GD32F30x_standard_peripheral/Source/gd32f30x_adc.c ****       \arg        ADC_OVERSAMPLING_RATIO_MUL64: oversampling ratio multiple 64
 902:Drivers/GD32F30x_standard_peripheral/Source/gd32f30x_adc.c ****       \arg        ADC_OVERSAMPLING_RATIO_MUL128: oversampling ratio multiple 128
 903:Drivers/GD32F30x_standard_peripheral/Source/gd32f30x_adc.c ****       \arg        ADC_OVERSAMPLING_RATIO_MUL256: oversampling ratio multiple 256
 904:Drivers/GD32F30x_standard_peripheral/Source/gd32f30x_adc.c ****     \param[out] none
 905:Drivers/GD32F30x_standard_peripheral/Source/gd32f30x_adc.c ****     \retval     none
 906:Drivers/GD32F30x_standard_peripheral/Source/gd32f30x_adc.c **** */
 907:Drivers/GD32F30x_standard_peripheral/Source/gd32f30x_adc.c **** void adc_oversample_mode_config(uint32_t adc_periph, uint32_t mode, uint16_t shift, uint8_t ratio)
 908:Drivers/GD32F30x_standard_peripheral/Source/gd32f30x_adc.c **** {
 1792              		.loc 1 908 1 is_stmt 1 view -0
 1793              		.cfi_startproc
 1794              		@ args = 0, pretend = 0, frame = 0
 1795              		@ frame_needed = 0, uses_anonymous_args = 0
 1796              		@ link register save eliminated.
 909:Drivers/GD32F30x_standard_peripheral/Source/gd32f30x_adc.c ****     if(ADC_OVERSAMPLING_ONE_CONVERT == mode){
 1797              		.loc 1 909 5 view .LVU489
 1798              		.loc 1 909 7 is_stmt 0 view .LVU490
 1799 0000 B1F5007F 		cmp	r1, #512
 1800 0004 12D0     		beq	.L122
 910:Drivers/GD32F30x_standard_peripheral/Source/gd32f30x_adc.c ****         ADC_OVSAMPCTL(adc_periph) |= (uint32_t)ADC_OVSAMPCTL_TOVS;
 911:Drivers/GD32F30x_standard_peripheral/Source/gd32f30x_adc.c ****     }else{
 912:Drivers/GD32F30x_standard_peripheral/Source/gd32f30x_adc.c ****         ADC_OVSAMPCTL(adc_periph) &= ~((uint32_t)ADC_OVSAMPCTL_TOVS);
 1801              		.loc 1 912 9 is_stmt 1 view .LVU491
 1802              		.loc 1 912 35 is_stmt 0 view .LVU492
 1803 0006 D0F88010 		ldr	r1, [r0, #128]
 1804              	.LVL143:
 1805              		.loc 1 912 35 view .LVU493
 1806 000a 21F40071 		bic	r1, r1, #512
 1807 000e C0F88010 		str	r1, [r0, #128]
 1808              	.L121:
 913:Drivers/GD32F30x_standard_peripheral/Source/gd32f30x_adc.c ****     }
 914:Drivers/GD32F30x_standard_peripheral/Source/gd32f30x_adc.c ****     /* config the shift and ratio */
 915:Drivers/GD32F30x_standard_peripheral/Source/gd32f30x_adc.c ****     ADC_OVSAMPCTL(adc_periph) &= ~((uint32_t)(ADC_OVSAMPCTL_OVSR | ADC_OVSAMPCTL_OVSS));
 1809              		.loc 1 915 5 is_stmt 1 view .LVU494
 1810              		.loc 1 915 31 is_stmt 0 view .LVU495
 1811 0012 D0F88010 		ldr	r1, [r0, #128]
 1812 0016 21F4FE71 		bic	r1, r1, #508
 1813 001a C0F88010 		str	r1, [r0, #128]
 916:Drivers/GD32F30x_standard_peripheral/Source/gd32f30x_adc.c ****     ADC_OVSAMPCTL(adc_periph) |= ((uint32_t)shift | (uint32_t)ratio);
 1814              		.loc 1 916 5 is_stmt 1 view .LVU496
 1815              		.loc 1 916 31 is_stmt 0 view .LVU497
 1816 001e D0F88010 		ldr	r1, [r0, #128]
 1817              		.loc 1 916 51 view .LVU498
 1818 0022 1A43     		orrs	r2, r2, r3
 1819              	.LVL144:
 1820              		.loc 1 916 31 view .LVU499
 1821 0024 0A43     		orrs	r2, r2, r1
 1822 0026 C0F88020 		str	r2, [r0, #128]
 917:Drivers/GD32F30x_standard_peripheral/Source/gd32f30x_adc.c **** }
 1823              		.loc 1 917 1 view .LVU500
 1824 002a 7047     		bx	lr
 1825              	.LVL145:
 1826              	.L122:
 910:Drivers/GD32F30x_standard_peripheral/Source/gd32f30x_adc.c ****     }else{
 1827              		.loc 1 910 9 is_stmt 1 view .LVU501
 910:Drivers/GD32F30x_standard_peripheral/Source/gd32f30x_adc.c ****     }else{
ARM GAS  /tmp/ccrXzzSE.s 			page 50


 1828              		.loc 1 910 35 is_stmt 0 view .LVU502
 1829 002c D0F88010 		ldr	r1, [r0, #128]
 1830              	.LVL146:
 910:Drivers/GD32F30x_standard_peripheral/Source/gd32f30x_adc.c ****     }else{
 1831              		.loc 1 910 35 view .LVU503
 1832 0030 41F40071 		orr	r1, r1, #512
 1833 0034 C0F88010 		str	r1, [r0, #128]
 1834 0038 EBE7     		b	.L121
 1835              		.cfi_endproc
 1836              	.LFE149:
 1838              		.section	.text.adc_oversample_mode_enable,"ax",%progbits
 1839              		.align	1
 1840              		.global	adc_oversample_mode_enable
 1841              		.syntax unified
 1842              		.thumb
 1843              		.thumb_func
 1845              	adc_oversample_mode_enable:
 1846              	.LVL147:
 1847              	.LFB150:
 918:Drivers/GD32F30x_standard_peripheral/Source/gd32f30x_adc.c **** 
 919:Drivers/GD32F30x_standard_peripheral/Source/gd32f30x_adc.c **** /*!
 920:Drivers/GD32F30x_standard_peripheral/Source/gd32f30x_adc.c ****     \brief      enable ADC oversample mode 
 921:Drivers/GD32F30x_standard_peripheral/Source/gd32f30x_adc.c ****     \param[in]  adc_periph: ADCx,x=0,1,2
 922:Drivers/GD32F30x_standard_peripheral/Source/gd32f30x_adc.c ****                 only one among these parameters can be selected
 923:Drivers/GD32F30x_standard_peripheral/Source/gd32f30x_adc.c ****     \param[out] none
 924:Drivers/GD32F30x_standard_peripheral/Source/gd32f30x_adc.c ****     \retval     none
 925:Drivers/GD32F30x_standard_peripheral/Source/gd32f30x_adc.c **** */
 926:Drivers/GD32F30x_standard_peripheral/Source/gd32f30x_adc.c **** void adc_oversample_mode_enable(uint32_t adc_periph)
 927:Drivers/GD32F30x_standard_peripheral/Source/gd32f30x_adc.c **** {
 1848              		.loc 1 927 1 is_stmt 1 view -0
 1849              		.cfi_startproc
 1850              		@ args = 0, pretend = 0, frame = 0
 1851              		@ frame_needed = 0, uses_anonymous_args = 0
 1852              		@ link register save eliminated.
 928:Drivers/GD32F30x_standard_peripheral/Source/gd32f30x_adc.c ****     ADC_OVSAMPCTL(adc_periph) |= ADC_OVSAMPCTL_OVSEN;
 1853              		.loc 1 928 5 view .LVU505
 1854              		.loc 1 928 31 is_stmt 0 view .LVU506
 1855 0000 D0F88030 		ldr	r3, [r0, #128]
 1856 0004 43F00103 		orr	r3, r3, #1
 1857 0008 C0F88030 		str	r3, [r0, #128]
 929:Drivers/GD32F30x_standard_peripheral/Source/gd32f30x_adc.c **** }
 1858              		.loc 1 929 1 view .LVU507
 1859 000c 7047     		bx	lr
 1860              		.cfi_endproc
 1861              	.LFE150:
 1863              		.section	.text.adc_oversample_mode_disable,"ax",%progbits
 1864              		.align	1
 1865              		.global	adc_oversample_mode_disable
 1866              		.syntax unified
 1867              		.thumb
 1868              		.thumb_func
 1870              	adc_oversample_mode_disable:
 1871              	.LVL148:
 1872              	.LFB151:
 930:Drivers/GD32F30x_standard_peripheral/Source/gd32f30x_adc.c **** 
 931:Drivers/GD32F30x_standard_peripheral/Source/gd32f30x_adc.c **** /*!
 932:Drivers/GD32F30x_standard_peripheral/Source/gd32f30x_adc.c ****     \brief      disable ADC oversample mode 
ARM GAS  /tmp/ccrXzzSE.s 			page 51


 933:Drivers/GD32F30x_standard_peripheral/Source/gd32f30x_adc.c ****     \param[in]  adc_periph: ADCx,x=0,1,2
 934:Drivers/GD32F30x_standard_peripheral/Source/gd32f30x_adc.c ****                 only one among these parameters can be selected
 935:Drivers/GD32F30x_standard_peripheral/Source/gd32f30x_adc.c ****     \param[out] none
 936:Drivers/GD32F30x_standard_peripheral/Source/gd32f30x_adc.c ****     \retval     none
 937:Drivers/GD32F30x_standard_peripheral/Source/gd32f30x_adc.c **** */
 938:Drivers/GD32F30x_standard_peripheral/Source/gd32f30x_adc.c **** void adc_oversample_mode_disable(uint32_t adc_periph)
 939:Drivers/GD32F30x_standard_peripheral/Source/gd32f30x_adc.c **** {
 1873              		.loc 1 939 1 is_stmt 1 view -0
 1874              		.cfi_startproc
 1875              		@ args = 0, pretend = 0, frame = 0
 1876              		@ frame_needed = 0, uses_anonymous_args = 0
 1877              		@ link register save eliminated.
 940:Drivers/GD32F30x_standard_peripheral/Source/gd32f30x_adc.c ****     ADC_OVSAMPCTL(adc_periph) &= ~((uint32_t)ADC_OVSAMPCTL_OVSEN);
 1878              		.loc 1 940 5 view .LVU509
 1879              		.loc 1 940 31 is_stmt 0 view .LVU510
 1880 0000 D0F88030 		ldr	r3, [r0, #128]
 1881 0004 23F00103 		bic	r3, r3, #1
 1882 0008 C0F88030 		str	r3, [r0, #128]
 941:Drivers/GD32F30x_standard_peripheral/Source/gd32f30x_adc.c **** }
 1883              		.loc 1 941 1 view .LVU511
 1884 000c 7047     		bx	lr
 1885              		.cfi_endproc
 1886              	.LFE151:
 1888              		.text
 1889              	.Letext0:
 1890              		.file 2 "/home/arashamf/soft/ARM_toolchains/gcc-arm-none-eabi-10.3-2021.10/arm-none-eabi/include/m
 1891              		.file 3 "/home/arashamf/soft/ARM_toolchains/gcc-arm-none-eabi-10.3-2021.10/arm-none-eabi/include/s
 1892              		.file 4 "Drivers/CMSIS/GD/GD32F30x/Include/gd32f30x.h"
 1893              		.file 5 "Drivers/GD32F30x_standard_peripheral/Include/gd32f30x_rcu.h"
ARM GAS  /tmp/ccrXzzSE.s 			page 52

