ARM GAS  /tmp/ccHCvb47.s 			page 1


   1              		.cpu cortex-m4
   2              		.arch armv7e-m
   3              		.fpu softvfp
   4              		.eabi_attribute 20, 1
   5              		.eabi_attribute 21, 1
   6              		.eabi_attribute 23, 3
   7              		.eabi_attribute 24, 1
   8              		.eabi_attribute 25, 1
   9              		.eabi_attribute 26, 1
  10              		.eabi_attribute 30, 1
  11              		.eabi_attribute 34, 1
  12              		.eabi_attribute 18, 4
  13              		.file	"gd32f30x_it.c"
  14              		.text
  15              	.Ltext0:
  16              		.cfi_sections	.debug_frame
  17              		.section	.text.NMI_Handler,"ax",%progbits
  18              		.align	1
  19              		.global	NMI_Handler
  20              		.syntax unified
  21              		.thumb
  22              		.thumb_func
  24              	NMI_Handler:
  25              	.LFB116:
  26              		.file 1 "Core/Source/gd32f30x_it.c"
   1:Core/Source/gd32f30x_it.c **** /*!
   2:Core/Source/gd32f30x_it.c ****     \file  gd32f30x_it.c
   3:Core/Source/gd32f30x_it.c ****     \brief interrupt service routines
   4:Core/Source/gd32f30x_it.c **** 
   5:Core/Source/gd32f30x_it.c ****     \version 2017-02-10, V1.0.0, firmware for GD32F30x
   6:Core/Source/gd32f30x_it.c ****     \version 2018-10-10, V1.1.0, firmware for GD32F30x
   7:Core/Source/gd32f30x_it.c ****     \version 2018-12-25, V2.0.0, firmware for GD32F30x
   8:Core/Source/gd32f30x_it.c **** */
   9:Core/Source/gd32f30x_it.c **** 
  10:Core/Source/gd32f30x_it.c **** /*
  11:Core/Source/gd32f30x_it.c ****     Copyright (c) 2018, GigaDevice Semiconductor Inc.
  12:Core/Source/gd32f30x_it.c **** 
  13:Core/Source/gd32f30x_it.c ****     All rights reserved.
  14:Core/Source/gd32f30x_it.c **** 
  15:Core/Source/gd32f30x_it.c ****     Redistribution and use in source and binary forms, with or without modification, 
  16:Core/Source/gd32f30x_it.c **** are permitted provided that the following conditions are met:
  17:Core/Source/gd32f30x_it.c **** 
  18:Core/Source/gd32f30x_it.c ****     1. Redistributions of source code must retain the above copyright notice, this 
  19:Core/Source/gd32f30x_it.c ****        list of conditions and the following disclaimer.
  20:Core/Source/gd32f30x_it.c ****     2. Redistributions in binary form must reproduce the above copyright notice, 
  21:Core/Source/gd32f30x_it.c ****        this list of conditions and the following disclaimer in the documentation 
  22:Core/Source/gd32f30x_it.c ****        and/or other materials provided with the distribution.
  23:Core/Source/gd32f30x_it.c ****     3. Neither the name of the copyright holder nor the names of its contributors 
  24:Core/Source/gd32f30x_it.c ****        may be used to endorse or promote products derived from this software without 
  25:Core/Source/gd32f30x_it.c ****        specific prior written permission.
  26:Core/Source/gd32f30x_it.c **** 
  27:Core/Source/gd32f30x_it.c ****     THIS SOFTWARE IS PROVIDED BY THE COPYRIGHT HOLDERS AND CONTRIBUTORS "AS IS" 
  28:Core/Source/gd32f30x_it.c **** AND ANY EXPRESS OR IMPLIED WARRANTIES, INCLUDING, BUT NOT LIMITED TO, THE IMPLIED 
  29:Core/Source/gd32f30x_it.c **** WARRANTIES OF MERCHANTABILITY AND FITNESS FOR A PARTICULAR PURPOSE ARE DISCLAIMED. 
  30:Core/Source/gd32f30x_it.c **** IN NO EVENT SHALL THE COPYRIGHT HOLDER OR CONTRIBUTORS BE LIABLE FOR ANY DIRECT, 
  31:Core/Source/gd32f30x_it.c **** INDIRECT, INCIDENTAL, SPECIAL, EXEMPLARY, OR CONSEQUENTIAL DAMAGES (INCLUDING, BUT 
  32:Core/Source/gd32f30x_it.c **** NOT LIMITED TO, PROCUREMENT OF SUBSTITUTE GOODS OR SERVICES; LOSS OF USE, DATA, OR 
ARM GAS  /tmp/ccHCvb47.s 			page 2


  33:Core/Source/gd32f30x_it.c **** PROFITS; OR BUSINESS INTERRUPTION) HOWEVER CAUSED AND ON ANY THEORY OF LIABILITY, 
  34:Core/Source/gd32f30x_it.c **** WHETHER IN CONTRACT, STRICT LIABILITY, OR TORT (INCLUDING NEGLIGENCE OR OTHERWISE) 
  35:Core/Source/gd32f30x_it.c **** ARISING IN ANY WAY OUT OF THE USE OF THIS SOFTWARE, EVEN IF ADVISED OF THE POSSIBILITY 
  36:Core/Source/gd32f30x_it.c **** OF SUCH DAMAGE.
  37:Core/Source/gd32f30x_it.c **** */
  38:Core/Source/gd32f30x_it.c **** 
  39:Core/Source/gd32f30x_it.c **** #include "gd32f30x_it.h"
  40:Core/Source/gd32f30x_it.c **** #include "systick.h"
  41:Core/Source/gd32f30x_it.c **** #include "tim.h"
  42:Core/Source/gd32f30x_it.c **** #include "spi.h"
  43:Core/Source/gd32f30x_it.c **** 
  44:Core/Source/gd32f30x_it.c **** /*!
  45:Core/Source/gd32f30x_it.c ****     \brief      this function handles NMI exception
  46:Core/Source/gd32f30x_it.c ****     \param[in]  none
  47:Core/Source/gd32f30x_it.c ****     \param[out] none
  48:Core/Source/gd32f30x_it.c ****     \retval     none
  49:Core/Source/gd32f30x_it.c **** */
  50:Core/Source/gd32f30x_it.c **** void NMI_Handler(void)
  51:Core/Source/gd32f30x_it.c **** {
  27              		.loc 1 51 1 view -0
  28              		.cfi_startproc
  29              		@ args = 0, pretend = 0, frame = 0
  30              		@ frame_needed = 0, uses_anonymous_args = 0
  31              		@ link register save eliminated.
  52:Core/Source/gd32f30x_it.c **** }
  32              		.loc 1 52 1 view .LVU1
  33 0000 7047     		bx	lr
  34              		.cfi_endproc
  35              	.LFE116:
  37              		.section	.text.HardFault_Handler,"ax",%progbits
  38              		.align	1
  39              		.global	HardFault_Handler
  40              		.syntax unified
  41              		.thumb
  42              		.thumb_func
  44              	HardFault_Handler:
  45              	.LFB117:
  53:Core/Source/gd32f30x_it.c **** 
  54:Core/Source/gd32f30x_it.c **** /*!
  55:Core/Source/gd32f30x_it.c ****     \brief      this function handles HardFault exception
  56:Core/Source/gd32f30x_it.c ****     \param[in]  none
  57:Core/Source/gd32f30x_it.c ****     \param[out] none
  58:Core/Source/gd32f30x_it.c ****     \retval     none
  59:Core/Source/gd32f30x_it.c **** */
  60:Core/Source/gd32f30x_it.c **** void HardFault_Handler(void)
  61:Core/Source/gd32f30x_it.c **** {
  46              		.loc 1 61 1 view -0
  47              		.cfi_startproc
  48              		@ Volatile: function does not return.
  49              		@ args = 0, pretend = 0, frame = 0
  50              		@ frame_needed = 0, uses_anonymous_args = 0
  51              		@ link register save eliminated.
  52              	.L3:
  62:Core/Source/gd32f30x_it.c ****     /* if Hard Fault exception occurs, go to infinite loop */
  63:Core/Source/gd32f30x_it.c ****     while (1){
  53              		.loc 1 63 5 discriminator 1 view .LVU3
  64:Core/Source/gd32f30x_it.c ****     }
ARM GAS  /tmp/ccHCvb47.s 			page 3


  54              		.loc 1 64 5 discriminator 1 view .LVU4
  63:Core/Source/gd32f30x_it.c ****     }
  55              		.loc 1 63 11 discriminator 1 view .LVU5
  56 0000 FEE7     		b	.L3
  57              		.cfi_endproc
  58              	.LFE117:
  60              		.section	.text.MemManage_Handler,"ax",%progbits
  61              		.align	1
  62              		.global	MemManage_Handler
  63              		.syntax unified
  64              		.thumb
  65              		.thumb_func
  67              	MemManage_Handler:
  68              	.LFB118:
  65:Core/Source/gd32f30x_it.c **** }
  66:Core/Source/gd32f30x_it.c **** 
  67:Core/Source/gd32f30x_it.c **** /*!
  68:Core/Source/gd32f30x_it.c ****     \brief      this function handles MemManage exception
  69:Core/Source/gd32f30x_it.c ****     \param[in]  none
  70:Core/Source/gd32f30x_it.c ****     \param[out] none
  71:Core/Source/gd32f30x_it.c ****     \retval     none
  72:Core/Source/gd32f30x_it.c **** */
  73:Core/Source/gd32f30x_it.c **** void MemManage_Handler(void)
  74:Core/Source/gd32f30x_it.c **** {
  69              		.loc 1 74 1 view -0
  70              		.cfi_startproc
  71              		@ Volatile: function does not return.
  72              		@ args = 0, pretend = 0, frame = 0
  73              		@ frame_needed = 0, uses_anonymous_args = 0
  74              		@ link register save eliminated.
  75              	.L5:
  75:Core/Source/gd32f30x_it.c ****     /* if Memory Manage exception occurs, go to infinite loop */
  76:Core/Source/gd32f30x_it.c ****     while (1){
  76              		.loc 1 76 5 discriminator 1 view .LVU7
  77:Core/Source/gd32f30x_it.c ****     }
  77              		.loc 1 77 5 discriminator 1 view .LVU8
  76:Core/Source/gd32f30x_it.c ****     }
  78              		.loc 1 76 11 discriminator 1 view .LVU9
  79 0000 FEE7     		b	.L5
  80              		.cfi_endproc
  81              	.LFE118:
  83              		.section	.text.BusFault_Handler,"ax",%progbits
  84              		.align	1
  85              		.global	BusFault_Handler
  86              		.syntax unified
  87              		.thumb
  88              		.thumb_func
  90              	BusFault_Handler:
  91              	.LFB119:
  78:Core/Source/gd32f30x_it.c **** }
  79:Core/Source/gd32f30x_it.c **** 
  80:Core/Source/gd32f30x_it.c **** /*!
  81:Core/Source/gd32f30x_it.c ****     \brief      this function handles BusFault exception
  82:Core/Source/gd32f30x_it.c ****     \param[in]  none
  83:Core/Source/gd32f30x_it.c ****     \param[out] none
  84:Core/Source/gd32f30x_it.c ****     \retval     none
  85:Core/Source/gd32f30x_it.c **** */
ARM GAS  /tmp/ccHCvb47.s 			page 4


  86:Core/Source/gd32f30x_it.c **** void BusFault_Handler(void)
  87:Core/Source/gd32f30x_it.c **** {
  92              		.loc 1 87 1 view -0
  93              		.cfi_startproc
  94              		@ Volatile: function does not return.
  95              		@ args = 0, pretend = 0, frame = 0
  96              		@ frame_needed = 0, uses_anonymous_args = 0
  97              		@ link register save eliminated.
  98              	.L7:
  88:Core/Source/gd32f30x_it.c ****     /* if Bus Fault exception occurs, go to infinite loop */
  89:Core/Source/gd32f30x_it.c ****     while (1){
  99              		.loc 1 89 5 discriminator 1 view .LVU11
  90:Core/Source/gd32f30x_it.c ****     }
 100              		.loc 1 90 5 discriminator 1 view .LVU12
  89:Core/Source/gd32f30x_it.c ****     }
 101              		.loc 1 89 11 discriminator 1 view .LVU13
 102 0000 FEE7     		b	.L7
 103              		.cfi_endproc
 104              	.LFE119:
 106              		.section	.text.UsageFault_Handler,"ax",%progbits
 107              		.align	1
 108              		.global	UsageFault_Handler
 109              		.syntax unified
 110              		.thumb
 111              		.thumb_func
 113              	UsageFault_Handler:
 114              	.LFB120:
  91:Core/Source/gd32f30x_it.c **** }
  92:Core/Source/gd32f30x_it.c **** 
  93:Core/Source/gd32f30x_it.c **** /*!
  94:Core/Source/gd32f30x_it.c ****     \brief      this function handles UsageFault exception
  95:Core/Source/gd32f30x_it.c ****     \param[in]  none
  96:Core/Source/gd32f30x_it.c ****     \param[out] none
  97:Core/Source/gd32f30x_it.c ****     \retval     none
  98:Core/Source/gd32f30x_it.c **** */
  99:Core/Source/gd32f30x_it.c **** void UsageFault_Handler(void)
 100:Core/Source/gd32f30x_it.c **** {
 115              		.loc 1 100 1 view -0
 116              		.cfi_startproc
 117              		@ Volatile: function does not return.
 118              		@ args = 0, pretend = 0, frame = 0
 119              		@ frame_needed = 0, uses_anonymous_args = 0
 120              		@ link register save eliminated.
 121              	.L9:
 101:Core/Source/gd32f30x_it.c ****     /* if Usage Fault exception occurs, go to infinite loop */
 102:Core/Source/gd32f30x_it.c ****     while (1){
 122              		.loc 1 102 5 discriminator 1 view .LVU15
 103:Core/Source/gd32f30x_it.c ****     }
 123              		.loc 1 103 5 discriminator 1 view .LVU16
 102:Core/Source/gd32f30x_it.c ****     }
 124              		.loc 1 102 11 discriminator 1 view .LVU17
 125 0000 FEE7     		b	.L9
 126              		.cfi_endproc
 127              	.LFE120:
 129              		.section	.text.SVC_Handler,"ax",%progbits
 130              		.align	1
 131              		.global	SVC_Handler
ARM GAS  /tmp/ccHCvb47.s 			page 5


 132              		.syntax unified
 133              		.thumb
 134              		.thumb_func
 136              	SVC_Handler:
 137              	.LFB121:
 104:Core/Source/gd32f30x_it.c **** }
 105:Core/Source/gd32f30x_it.c **** 
 106:Core/Source/gd32f30x_it.c **** /*!
 107:Core/Source/gd32f30x_it.c ****     \brief      this function handles SVC exception
 108:Core/Source/gd32f30x_it.c ****     \param[in]  none
 109:Core/Source/gd32f30x_it.c ****     \param[out] none
 110:Core/Source/gd32f30x_it.c ****     \retval     none
 111:Core/Source/gd32f30x_it.c **** */
 112:Core/Source/gd32f30x_it.c **** void SVC_Handler(void)
 113:Core/Source/gd32f30x_it.c **** {
 138              		.loc 1 113 1 view -0
 139              		.cfi_startproc
 140              		@ args = 0, pretend = 0, frame = 0
 141              		@ frame_needed = 0, uses_anonymous_args = 0
 142              		@ link register save eliminated.
 114:Core/Source/gd32f30x_it.c **** }
 143              		.loc 1 114 1 view .LVU19
 144 0000 7047     		bx	lr
 145              		.cfi_endproc
 146              	.LFE121:
 148              		.section	.text.DebugMon_Handler,"ax",%progbits
 149              		.align	1
 150              		.global	DebugMon_Handler
 151              		.syntax unified
 152              		.thumb
 153              		.thumb_func
 155              	DebugMon_Handler:
 156              	.LFB122:
 115:Core/Source/gd32f30x_it.c **** 
 116:Core/Source/gd32f30x_it.c **** /*!
 117:Core/Source/gd32f30x_it.c ****     \brief      this function handles DebugMon exception
 118:Core/Source/gd32f30x_it.c ****     \param[in]  none
 119:Core/Source/gd32f30x_it.c ****     \param[out] none
 120:Core/Source/gd32f30x_it.c ****     \retval     none
 121:Core/Source/gd32f30x_it.c **** */
 122:Core/Source/gd32f30x_it.c **** void DebugMon_Handler(void)
 123:Core/Source/gd32f30x_it.c **** {
 157              		.loc 1 123 1 view -0
 158              		.cfi_startproc
 159              		@ args = 0, pretend = 0, frame = 0
 160              		@ frame_needed = 0, uses_anonymous_args = 0
 161              		@ link register save eliminated.
 124:Core/Source/gd32f30x_it.c **** }
 162              		.loc 1 124 1 view .LVU21
 163 0000 7047     		bx	lr
 164              		.cfi_endproc
 165              	.LFE122:
 167              		.section	.text.PendSV_Handler,"ax",%progbits
 168              		.align	1
 169              		.global	PendSV_Handler
 170              		.syntax unified
 171              		.thumb
ARM GAS  /tmp/ccHCvb47.s 			page 6


 172              		.thumb_func
 174              	PendSV_Handler:
 175              	.LFB123:
 125:Core/Source/gd32f30x_it.c **** 
 126:Core/Source/gd32f30x_it.c **** /*!
 127:Core/Source/gd32f30x_it.c ****     \brief      this function handles PendSV exception
 128:Core/Source/gd32f30x_it.c ****     \param[in]  none
 129:Core/Source/gd32f30x_it.c ****     \param[out] none
 130:Core/Source/gd32f30x_it.c ****     \retval     none
 131:Core/Source/gd32f30x_it.c **** */
 132:Core/Source/gd32f30x_it.c **** void PendSV_Handler(void)
 133:Core/Source/gd32f30x_it.c **** {
 176              		.loc 1 133 1 view -0
 177              		.cfi_startproc
 178              		@ args = 0, pretend = 0, frame = 0
 179              		@ frame_needed = 0, uses_anonymous_args = 0
 180              		@ link register save eliminated.
 134:Core/Source/gd32f30x_it.c **** }
 181              		.loc 1 134 1 view .LVU23
 182 0000 7047     		bx	lr
 183              		.cfi_endproc
 184              	.LFE123:
 186              		.section	.text.SysTick_Handler,"ax",%progbits
 187              		.align	1
 188              		.global	SysTick_Handler
 189              		.syntax unified
 190              		.thumb
 191              		.thumb_func
 193              	SysTick_Handler:
 194              	.LFB124:
 135:Core/Source/gd32f30x_it.c **** 
 136:Core/Source/gd32f30x_it.c **** /*!
 137:Core/Source/gd32f30x_it.c ****     \brief      this function handles SysTick exception
 138:Core/Source/gd32f30x_it.c ****     \param[in]  none
 139:Core/Source/gd32f30x_it.c ****     \param[out] none
 140:Core/Source/gd32f30x_it.c ****     \retval     none
 141:Core/Source/gd32f30x_it.c **** */
 142:Core/Source/gd32f30x_it.c **** void SysTick_Handler(void)
 143:Core/Source/gd32f30x_it.c **** {
 195              		.loc 1 143 1 view -0
 196              		.cfi_startproc
 197              		@ args = 0, pretend = 0, frame = 0
 198              		@ frame_needed = 0, uses_anonymous_args = 0
 199 0000 08B5     		push	{r3, lr}
 200              	.LCFI0:
 201              		.cfi_def_cfa_offset 8
 202              		.cfi_offset 3, -8
 203              		.cfi_offset 14, -4
 144:Core/Source/gd32f30x_it.c ****     delay_decrement();
 204              		.loc 1 144 5 view .LVU25
 205 0002 FFF7FEFF 		bl	delay_decrement
 206              	.LVL0:
 145:Core/Source/gd32f30x_it.c **** }
 207              		.loc 1 145 1 is_stmt 0 view .LVU26
 208 0006 08BD     		pop	{r3, pc}
 209              		.cfi_endproc
 210              	.LFE124:
ARM GAS  /tmp/ccHCvb47.s 			page 7


 212              		.section	.text.TIMER6_IRQHandler,"ax",%progbits
 213              		.align	1
 214              		.global	TIMER6_IRQHandler
 215              		.syntax unified
 216              		.thumb
 217              		.thumb_func
 219              	TIMER6_IRQHandler:
 220              	.LFB125:
 146:Core/Source/gd32f30x_it.c **** 
 147:Core/Source/gd32f30x_it.c **** //-----------------------------------------------------------------------//
 148:Core/Source/gd32f30x_it.c **** void TIMER6_IRQHandler (void)
 149:Core/Source/gd32f30x_it.c **** {
 221              		.loc 1 149 1 is_stmt 1 view -0
 222              		.cfi_startproc
 223              		@ args = 0, pretend = 0, frame = 0
 224              		@ frame_needed = 0, uses_anonymous_args = 0
 225 0000 08B5     		push	{r3, lr}
 226              	.LCFI1:
 227              		.cfi_def_cfa_offset 8
 228              		.cfi_offset 3, -8
 229              		.cfi_offset 14, -4
 150:Core/Source/gd32f30x_it.c ****     timer_delay_callback ();
 230              		.loc 1 150 5 view .LVU28
 231 0002 FFF7FEFF 		bl	timer_delay_callback
 232              	.LVL1:
 151:Core/Source/gd32f30x_it.c **** }
 233              		.loc 1 151 1 is_stmt 0 view .LVU29
 234 0006 08BD     		pop	{r3, pc}
 235              		.cfi_endproc
 236              	.LFE125:
 238              		.section	.text.TIMER9_IRQHandler,"ax",%progbits
 239              		.align	1
 240              		.global	TIMER9_IRQHandler
 241              		.syntax unified
 242              		.thumb
 243              		.thumb_func
 245              	TIMER9_IRQHandler:
 246              	.LFB126:
 152:Core/Source/gd32f30x_it.c **** 
 153:Core/Source/gd32f30x_it.c **** //-----------------------------------------------------------------------//
 154:Core/Source/gd32f30x_it.c **** void TIMER9_IRQHandler (void)
 155:Core/Source/gd32f30x_it.c **** {
 247              		.loc 1 155 1 is_stmt 1 view -0
 248              		.cfi_startproc
 249              		@ args = 0, pretend = 0, frame = 0
 250              		@ frame_needed = 0, uses_anonymous_args = 0
 251 0000 08B5     		push	{r3, lr}
 252              	.LCFI2:
 253              		.cfi_def_cfa_offset 8
 254              		.cfi_offset 3, -8
 255              		.cfi_offset 14, -4
 156:Core/Source/gd32f30x_it.c ****     timer_delay_callback ();
 256              		.loc 1 156 5 view .LVU31
 257 0002 FFF7FEFF 		bl	timer_delay_callback
 258              	.LVL2:
 157:Core/Source/gd32f30x_it.c **** }
 259              		.loc 1 157 1 is_stmt 0 view .LVU32
ARM GAS  /tmp/ccHCvb47.s 			page 8


 260 0006 08BD     		pop	{r3, pc}
 261              		.cfi_endproc
 262              	.LFE126:
 264              		.section	.text.DMA0_Channel2_IRQHandler,"ax",%progbits
 265              		.align	1
 266              		.global	DMA0_Channel2_IRQHandler
 267              		.syntax unified
 268              		.thumb
 269              		.thumb_func
 271              	DMA0_Channel2_IRQHandler:
 272              	.LFB127:
 158:Core/Source/gd32f30x_it.c **** 
 159:Core/Source/gd32f30x_it.c **** //-----------------------------------------------------------------------//
 160:Core/Source/gd32f30x_it.c **** void DMA0_Channel2_IRQHandler(void)
 161:Core/Source/gd32f30x_it.c **** {
 273              		.loc 1 161 1 is_stmt 1 view -0
 274              		.cfi_startproc
 275              		@ args = 0, pretend = 0, frame = 0
 276              		@ frame_needed = 0, uses_anonymous_args = 0
 277 0000 08B5     		push	{r3, lr}
 278              	.LCFI3:
 279              		.cfi_def_cfa_offset 8
 280              		.cfi_offset 3, -8
 281              		.cfi_offset 14, -4
 162:Core/Source/gd32f30x_it.c ****     if(dma_interrupt_flag_get(DMA0, DMA_CH2, DMA_INT_FLAG_FTF))
 282              		.loc 1 162 5 view .LVU34
 283              		.loc 1 162 8 is_stmt 0 view .LVU35
 284 0002 0222     		movs	r2, #2
 285 0004 1146     		mov	r1, r2
 286 0006 0648     		ldr	r0, .L23
 287 0008 FFF7FEFF 		bl	dma_interrupt_flag_get
 288              	.LVL3:
 289              		.loc 1 162 7 view .LVU36
 290 000c 00B9     		cbnz	r0, .L22
 291              	.L19:
 163:Core/Source/gd32f30x_it.c ****     {     
 164:Core/Source/gd32f30x_it.c ****         dma_interrupt_flag_clear(DMA0, DMA_CH2, DMA_INT_FLAG_G);
 165:Core/Source/gd32f30x_it.c ****         DMA0_Channel2_Callback();
 166:Core/Source/gd32f30x_it.c ****     }
 167:Core/Source/gd32f30x_it.c **** }...
 292              		.loc 1 167 1 view .LVU37
 293 000e 08BD     		pop	{r3, pc}
 294              	.L22:
 164:Core/Source/gd32f30x_it.c ****         dma_interrupt_flag_clear(DMA0, DMA_CH2, DMA_INT_FLAG_G);
 295              		.loc 1 164 9 is_stmt 1 view .LVU38
 296 0010 0122     		movs	r2, #1
 297 0012 0221     		movs	r1, #2
 298 0014 0248     		ldr	r0, .L23
 299 0016 FFF7FEFF 		bl	dma_interrupt_flag_clear
 300              	.LVL4:
 165:Core/Source/gd32f30x_it.c ****         DMA0_Channel2_Callback();
 301              		.loc 1 165 9 view .LVU39
 302 001a FFF7FEFF 		bl	DMA0_Channel2_Callback
 303              	.LVL5:
 304              		.loc 1 167 1 is_stmt 0 view .LVU40
 305 001e F6E7     		b	.L19
 306              	.L24:
ARM GAS  /tmp/ccHCvb47.s 			page 9


 307              		.align	2
 308              	.L23:
 309 0020 00000240 		.word	1073872896
 310              		.cfi_endproc
 311              	.LFE127:
 313              		.text
 314              	.Letext0:
 315              		.file 2 "/home/arashamf/soft/ARM_toolchains/gcc-arm-none-eabi-10.3-2021.10/arm-none-eabi/include/m
 316              		.file 3 "/home/arashamf/soft/ARM_toolchains/gcc-arm-none-eabi-10.3-2021.10/arm-none-eabi/include/s
 317              		.file 4 "Drivers/GD32F30x_standard_peripheral/Include/gd32f30x_dma.h"
 318              		.file 5 "Core/Include/spi.h"
 319              		.file 6 "Core/Include/tim.h"
 320              		.file 7 "Core/Include/systick.h"
ARM GAS  /tmp/ccHCvb47.s 			page 10

